(dp1
S'1'
(dp2
S'nr'
p3
I1
sS'lastValid'
p4
(dp5
S'Cumulative'
p6
I00
sS'Global'
p7
I00
ssS'values'
p8
(dp9
g7
(lp10
F-0.001958458695
aF-0.001760010165
aF0.001667715201
aF-0.002347701369
aF-0.001614546299
aF0.003623219542
aF-0.00085715192040000004
aF0.00073081753779999999
aF0.00099064972259999993
aF0.00060810758679999996
aF0.0030512570039999999
aF-0.00070799272190000002
aF0.00028202094819999998
aF0.0024533674240000002
aF0.00041079871429999999
aF-0.00026010331439999998
aF0.00025000387889999998
aF-0.00025864752100000001
aF-0.00178113225
aF0.0029385277639999998
aF0.001653577057
aF-0.001467338513
aF0.00079772827640000005
aF-0.001485498062
aF-0.0016376072139999999
aF-0.00025377788660000002
aF0.0019598108589999998
aF-0.0014393199699999999
aF0.0014458191569999999
aF-0.00047338431119999999
aF-0.0009662058402
aF4.5715672880000002e-05
aF-0.0002748980397
aF0.00040337013609999999
aF9.4142703599999993e-05
aF0.00017834688479999999
aF0.00055593260189999998
aF0.00061985311579999998
aF0.00032688595660000002
aF-0.00055119230050000004
aF-0.00043518844329999999
aF-0.00043857595790000001
aF0.00041621376289999998
aF0.00027065285110000002
aF0.0001570918433
aF0.00024075755720000001
aF0.00026766593999999998
aF0.0002377553007
aF-0.00051613638569999998
aF-4.0742749050000002e-05
aF0.00012856577499999999
aF-0.00041493650729999999
aF-0.00032410560030000002
aF-0.0002735795019
aF-9.6658160479999998e-05
aF8.5275466379999994e-05
aF5.6170955140000003e-05
aF-2.383894806e-05
aF2.1543749179999999e-05
aF5.874788823e-05
aF0.0001401527591
aF0.00023552693299999999
aF0.00027228767399999998
aF0.00027215793249999999
aF0.00023977173599999999
aF-0.0001081470134
aF0.00015097380300000001
aF0.0001377372052
aF-5.527791782e-05
aF3.022581561e-06
aF6.7946763689999995e-05
aF3.1083571480000001e-05
aF6.7871712319999997e-05
aF0.00010251812679999999
aF0.0001341394442
aF0.00013965515070000001
aF0.00014056373020000001
aF0.00013730208000000001
aF0.00012174086819999999
aF9.0072008389999999e-05
aF3.7551980979999997e-05
aF-2.2111200070000001e-05
aF-8.061285954e-05
aF-0.0001002782585
aF-0.0001110394141
aF-0.0001043289618
aF-9.4322082559999997e-05
aF-8.5730885559999999e-05
aF-7.677735874e-05
aF-6.5054857759999995e-05
aF-5.3515333740000003e-05
aF-3.9095356790000001e-05
aF-3.3659901029999998e-05
aF-3.491086246e-05
aF4.5740774909999997e-05
aF3.4728587259999998e-05
aF1.9909042259999999e-05
aF-5.2425263230000001e-06
aF-5.0134859380000001e-05
aF-5.5910378569999999e-05
aF-5.5941633100000002e-05
aF-5.989583513e-05
aF-6.6973039949999998e-05
aF-7.0336706400000003e-05
aF-6.3777472840000006e-05
aF-4.6006010939999997e-05
aF-2.8478383739999999e-05
aF-1.875181247e-05
aF-1.489539112e-05
aF-1.5511082939999999e-05
aF-2.2207634530000001e-05
aF-3.1215650259999999e-05
aF-3.7352850840000002e-05
aF-4.0299680199999998e-05
aF-4.1250566999999997e-05
aF-4.0582897300000001e-05
aF-3.8341776329999998e-05
aF-3.515554206e-05
aF-3.1085219330000001e-05
aF-2.6817325999999999e-05
aF-2.174470763e-05
aF-1.631797908e-05
aF-1.2425127599999999e-05
aF-8.7497821650000001e-06
aF-4.8170866849999999e-06
aF-2.5160582140000002e-06
aF-1.5573922350000001e-07
aF1.346894936e-06
aF2.216461864e-06
aF2.6540267319999999e-06
aF2.6914544109999999e-06
aF2.0930614059999999e-06
aF1.604356221e-06
aF1.061008421e-06
aF4.4054652019999998e-07
aF1.4099529049999999e-07
aF1.0381812929999999e-08
aF1.0667811279999999e-07
aF2.2708341399999999e-07
aF1.4198967170000001e-07
aF-4.0144335030000001e-07
aF-1.1144520100000001e-06
aF-1.625102606e-06
aF-1.7888201109999999e-06
aF-1.496284714e-06
aF-8.8459629269999995e-07
aF-2.852442616e-07
aF-1.093298018e-06
aF-9.641090224e-07
aF-1.338292521e-06
aF-1.585100881e-06
aF-1.872584525e-06
aF-1.9944771620000001e-06
aF-1.936129271e-06
aF-1.5828298109999999e-06
aF-1.3098443309999999e-06
aF-1.095814341e-06
aF-9.8237405060000003e-07
aF-1.2347064630000001e-06
aF-1.2951859300000001e-06
aF-1.1315521709999999e-06
aF-9.0838589889999997e-07
aF-5.570701074e-07
aF-5.5644592270000001e-07
aF-7.4848600860000005e-08
aF9.1162062509999999e-08
aF4.0520090019999997e-07
aF5.6247905769999995e-07
aF6.8102111729999998e-07
aF6.9368059459999996e-07
aF7.4629274209999996e-07
aF6.8617455169999999e-07
aF6.7734569789999995e-07
aF8.5771877299999998e-07
aF8.9668585369999995e-07
aF9.7274802700000007e-07
aF9.51454724e-07
aF8.2577733540000003e-07
aF7.0085005819999997e-07
aF5.0653188760000001e-07
aF3.421129965e-07
aF1.1939195990000001e-07
aF2.937448864e-07
aF-3.0021980700000001e-08
aF1.3735783560000001e-07
aF1.115734851e-07
aF1.545807585e-07
aF1.616383534e-08
aF5.117132985e-11
aF-3.1558384460000003e-08
aF-5.220077896e-09
aF7.7472454879999999e-08
aF1.4807242809999999e-07
aF2.087700292e-07
aF1.6922279320000001e-07
aF6.8114305149999998e-07
aF3.1349071780000002e-08
aF5.6125790930000003e-07
aF3.8238883390000001e-07
aF3.1265653470000001e-07
aF1.5882849570000001e-07
aF1.7306334740000001e-08
aF-1.3298280409999999e-07
aF0
asg6
(lp11
F-0.0021695896210000001
aF-0.0039295997860000001
aF-0.0022618845859999999
aF-0.0046095859550000003
aF-0.0062241322540000001
aF-0.0026009127120000001
aF-0.0034580646319999999
aF-0.002727247094
aF-0.0017365973719999999
aF-0.001128489785
aF0.0019227672189999999
aF0.001214774497
aF0.0014967954449999999
aF0.0039501628689999997
aF0.0043609615829999998
aF0.004100858269
aF0.0043508621479999999
aF0.0040922146269999999
aF0.0023110823770000001
aF0.0052496101409999999
aF0.0069031871979999999
aF0.0054358486850000004
aF0.0062335769610000003
aF0.0047480789000000001
aF0.0031104716849999999
aF0.0028566937989999998
aF0.0048165046569999996
aF0.0033771846869999999
aF0.0048230038440000003
aF0.0043496195329999999
aF0.0033834136929999999
aF0.0034291293660000002
aF0.003154231326
aF0.003557601462
aF0.0036517441659999999
aF0.0038300910510000001
aF0.0043860236520000002
aF0.0050058767679999998
aF0.0053327627249999997
aF0.0047815704239999998
aF0.0043463819809999998
aF0.0039078060230000001
aF0.0043240197859999996
aF0.0045946726369999998
aF0.0047517644800000002
aF0.004992522038
aF0.0052601879779999999
aF0.0054979432779999997
aF0.0049818068930000004
aF0.0049410641439999996
aF0.0050696299179999998
aF0.0046546934110000002
aF0.0043305878110000001
aF0.004057008309
aF0.0039603501490000003
aF0.0040456256150000003
aF0.0041017965699999999
aF0.0040779576220000002
aF0.004099501371
aF0.0041582492590000004
aF0.0042984020179999997
aF0.0045339289509999997
aF0.0048062166260000004
aF0.0050783745579999996
aF0.0053181462939999999
aF0.0052099992810000001
aF0.0053609730840000003
aF0.0054987102889999997
aF0.0054434323709999996
aF0.005446454953
aF0.0055144017160000001
aF0.0055454852879999999
aF0.0056133570000000002
aF0.0057158751270000004
aF0.0058500145709999996
aF0.0059896697220000001
aF0.0061302334519999996
aF0.0062675355319999999
aF0.0063892764000000003
aF0.0064793484080000003
aF0.0065169003889999997
aF0.0064947891889999996
aF0.0064141763300000001
aF0.0063138980710000002
aF0.0062028586569999999
aF0.0060985296950000004
aF0.0060042076129999998
aF0.0059184767269999999
aF0.0058416993679999999
aF0.0057766445110000002
aF0.0057231291770000001
aF0.00568403382
aF0.0056503739190000004
aF0.0056154630570000004
aF0.0056612038320000002
aF0.0056959324190000004
aF0.0057158414609999996
aF0.0057105989350000001
aF0.0056604640749999997
aF0.0056045536970000002
aF0.0055486120640000003
aF0.0054887162289999998
aF0.0054217431890000002
aF0.0053514064820000002
aF0.0052876290089999998
aF0.0052416229990000004
aF0.005213144615
aF0.0051943928020000002
aF0.0051794974109999996
aF0.0051639863280000002
aF0.0051417786940000003
aF0.0051105630429999997
aF0.0050732101930000004
aF0.0050329105120000004
aF0.004991659945
aF0.0049510770479999997
aF0.0049127352720000003
aF0.0048775797299999996
aF0.0048464945100000004
aF0.0048196771839999998
aF0.0047979324769999998
aF0.0047816144979999997
aF0.0047691893700000003
aF0.0047604395880000002
aF0.0047556225010000003
aF0.0047531064430000004
aF0.0047529507040000004
aF0.004754297599
aF0.0047565140610000001
aF0.0047591680870000003
aF0.0047618595419999998
aF0.0047639526029999999
aF0.0047655569589999999
aF0.0047666179680000004
aF0.0047670585139999999
aF0.0047671995100000003
aF0.004767209891
aF0.0047673165700000001
aF0.0047675436530000004
aF0.0047676856430000003
aF0.0047672841989999997
aF0.0047661697469999998
aF0.0047645446450000004
aF0.0047627558250000002
aF0.0047612595399999999
aF0.0047603749440000001
aF0.0047600896989999997
aF0.0047589964010000003
aF0.0047580322920000003
aF0.0047566939999999997
aF0.0047551088990000004
aF0.0047532363139999997
aF0.0047512418370000004
aF0.0047493057080000003
aF0.0047477228780000002
aF0.0047464130340000004
aF0.0047453172190000002
aF0.0047443348449999999
aF0.004743100139
aF0.0047418049529999997
aF0.0047406734009999996
aF0.0047397650150000003
aF0.0047392079449999997
aF0.0047386514990000001
aF0.0047385766500000004
aF0.0047386678119999996
aF0.0047390730130000003
aF0.0047396354919999996
aF0.0047403165129999997
aF0.0047410101939999996
aF0.004741756487
aF0.0047424426609999999
aF0.0047431200070000004
aF0.0047439777259999996
aF0.0047448744119999997
aF0.0047458471600000003
aF0.0047467986140000001
aF0.0047476243919999999
aF0.0047483252420000002
aF0.0047488317739999997
aF0.0047491738870000001
aF0.0047492932790000001
aF0.0047495870229999999
aF0.0047495570010000002
aF0.0047496943590000004
aF0.0047498059330000003
aF0.0047499605139999998
aF0.0047499766769999998
aF0.0047499767289999996
aF0.0047499451700000004
aF0.0047499399499999996
aF0.0047500174230000001
aF0.004750165495
aF0.0047503742650000002
aF0.0047505434880000001
aF0.0047512246309999997
aF0.0047512559799999998
aF0.0047518172380000001
aF0.004752199627
aF0.0047525122829999997
aF0.0047526711120000004
aF0.0047526884179999998
aF0.0047525554349999999
aF0
assS'slaves'
p12
(lp13
sS'times'
p14
(lp15
F2
aF3
aF4
aF5
aF6
aF7
aF8
aF9
aF10
aF11
aF12
aF13
aF14
aF15
aF16
aF17
aF18
aF19
aF20
aF21
aF22
aF23
aF24
aF25
aF26
aF27
aF28
aF29
aF30
aF31
aF32
aF33
aF34
aF35
aF36
aF37
aF38
aF39
aF40
aF41
aF42
aF43
aF44
aF45
aF46
aF47
aF48
aF49
aF50
aF51
aF52
aF53
aF54
aF55
aF56
aF57
aF58
aF59
aF60
aF61
aF62
aF63
aF64
aF65
aF66
aF67
aF68
aF69
aF70
aF71
aF72
aF73
aF74
aF75
aF76
aF77
aF78
aF79
aF80
aF81
aF82
aF83
aF84
aF85
aF86
aF87
aF88
aF89
aF90
aF91
aF92
aF93
aF94
aF95
aF96
aF97
aF98
aF99
aF100
aF101
aF102
aF103
aF104
aF105
aF106
aF107
aF108
aF109
aF110
aF111
aF112
aF113
aF114
aF115
aF116
aF117
aF118
aF119
aF120
aF121
aF122
aF123
aF124
aF125
aF126
aF127
aF128
aF129
aF130
aF131
aF132
aF133
aF134
aF135
aF136
aF137
aF138
aF139
aF140
aF141
aF142
aF143
aF144
aF145
aF146
aF147
aF148
aF149
aF150
aF151
aF152
aF153
aF154
aF155
aF156
aF157
aF158
aF159
aF160
aF161
aF162
aF163
aF164
aF165
aF166
aF167
aF168
aF169
aF170
aF171
aF172
aF173
aF174
aF175
aF176
aF177
aF178
aF179
aF180
aF181
aF182
aF183
aF184
aF185
aF186
aF187
aF188
aF189
aF190
aF191
aF192
aF193
aF194
aF195
aF196
aF197
aF198
aF199
aF200
aF201
aF202
aF203
aF204
aF205
assS'3'
(dp16
g3
I3
sg4
(dp17
S'p_rgh'
p18
I00
sS'Uy'
p19
I00
sS'Ux'
p20
I00
sS'Uz'
p21
I00
sS'k'
I00
sS'T'
I00
sS'omega'
p22
I00
ssg8
(dp23
g18
(lp24
F22
aF9
aF16
aF17
aF14
aF17
aF16
aF14
aF16
aF16
aF15
aF16
aF15
aF14
aF16
aF13
aF13
aF16
aF11
aF12
aF14
aF12
aF11
aF12
aF11
aF11
aF12
aF10
aF10
aF11
aF9
aF10
aF10
aF8
aF8
aF8
aF8
aF8
aF8
aF8
aF8
aF8
aF7
aF7
aF7
aF7
aF7
aF7
aF6
aF7
aF7
aF6
aF6
aF6
aF6
aF6
aF6
aF6
aF6
aF6
aF6
aF6
aF6
aF6
aF6
aF5
aF6
aF6
aF5
aF5
aF6
aF5
aF5
aF5
aF5
aF5
aF5
aF5
aF5
aF5
aF5
aF5
aF5
aF5
aF5
aF5
aF5
aF5
aF5
aF5
aF5
aF5
aF5
aF5
aF6
aF6
aF6
aF6
aF6
aF6
aF6
aF6
aF6
aF6
aF6
aF6
aF6
aF6
aF6
aF6
aF6
aF6
aF6
aF6
aF6
aF6
aF6
aF6
aF6
aF6
aF6
aF6
aF6
aF6
aF6
aF6
aF6
aF6
aF6
aF6
aF6
aF6
aF6
aF6
aF6
aF6
aF6
aF6
aF6
aF6
aF6
aF6
aF6
aF6
aF6
aF6
aF6
aF7
aF7
aF7
aF7
aF7
aF7
aF7
aF7
aF7
aF7
aF7
aF7
aF7
aF7
aF7
aF7
aF6
aF6
aF6
aF6
aF6
aF6
aF6
aF7
aF7
aF7
aF7
aF7
aF7
aF7
aF7
aF7
aF7
aF7
aF7
aF7
aF7
aF7
aF7
aF7
aF7
aF7
aF7
aF7
aF7
aF7
aF7
aF7
aF6
aF7
aF6
aF6
aF7
aF7
aF7
aF7
aF7
asg19
(lp25
F4
aF5
aF5
aF5
aF5
aF5
aF5
aF5
aF5
aF5
aF5
aF5
aF5
aF5
aF5
aF5
aF5
aF5
aF5
aF5
aF5
aF5
aF5
aF5
aF5
aF5
aF5
aF5
aF5
aF5
aF5
aF5
aF5
aF5
aF5
aF5
aF5
aF5
aF5
aF5
aF5
aF5
aF5
aF5
aF5
aF5
aF5
aF5
aF5
aF5
aF5
aF5
aF5
aF5
aF5
aF5
aF5
aF5
aF5
aF5
aF5
aF5
aF5
aF5
aF5
aF5
aF4
aF4
aF4
aF4
aF4
aF4
aF4
aF4
aF4
aF4
aF4
aF4
aF4
aF4
aF4
aF4
aF4
aF4
aF4
aF4
aF4
aF4
aF4
aF4
aF4
aF4
aF4
aF4
aF4
aF4
aF4
aF4
aF4
aF4
aF4
aF4
aF4
aF4
aF4
aF4
aF4
aF4
aF4
aF4
aF4
aF4
aF4
aF4
aF4
aF4
aF4
aF4
aF4
aF4
aF4
aF4
aF5
aF5
aF4
aF5
aF4
aF4
aF4
aF4
aF4
aF4
aF4
aF4
aF4
aF4
aF4
aF4
aF4
aF4
aF4
aF4
aF4
aF4
aF4
aF4
aF4
aF4
aF4
aF4
aF4
aF4
aF4
aF4
aF4
aF4
aF4
aF4
aF4
aF4
aF4
aF4
aF4
aF4
aF4
aF4
aF5
aF5
aF5
aF5
aF5
aF5
aF5
aF5
aF5
aF5
aF5
aF5
aF5
aF5
aF4
aF4
aF4
aF4
aF4
aF4
aF5
aF5
aF5
aF5
aF5
aF5
aF5
aF5
aF5
aF5
aF5
aF5
aF5
aF5
aF5
aF5
aF5
aF5
asg20
(lp26
F4
aF5
aF5
aF5
aF5
aF5
aF5
aF5
aF5
aF5
aF5
aF5
aF5
aF5
aF5
aF5
aF5
aF5
aF5
aF5
aF5
aF5
aF5
aF5
aF5
aF5
aF5
aF5
aF5
aF5
aF5
aF5
aF5
aF5
aF5
aF5
aF5
aF5
aF5
aF5
aF5
aF5
aF5
aF5
aF5
aF5
aF5
aF5
aF5
aF5
aF4
aF4
aF4
aF4
aF4
aF4
aF4
aF4
aF4
aF4
aF4
aF4
aF4
aF4
aF4
aF4
aF4
aF4
aF4
aF4
aF4
aF4
aF4
aF4
aF4
aF4
aF4
aF4
aF4
aF4
aF4
aF4
aF4
aF4
aF4
aF4
aF4
aF4
aF4
aF4
aF4
aF4
aF4
aF4
aF4
aF4
aF4
aF4
aF4
aF4
aF4
aF4
aF4
aF4
aF4
aF4
aF4
aF4
aF4
aF4
aF4
aF4
aF4
aF4
aF4
aF4
aF4
aF4
aF4
aF4
aF4
aF4
aF4
aF4
aF4
aF4
aF4
aF4
aF4
aF4
aF4
aF4
aF4
aF4
aF4
aF4
aF4
aF4
aF4
aF4
aF4
aF4
aF4
aF4
aF4
aF4
aF4
aF4
aF4
aF4
aF4
aF4
aF4
aF4
aF4
aF4
aF4
aF4
aF5
aF5
aF5
aF5
aF5
aF5
aF5
aF5
aF5
aF5
aF5
aF5
aF5
aF5
aF5
aF5
aF5
aF5
aF5
aF5
aF5
aF5
aF5
aF5
aF5
aF5
aF5
aF5
aF5
aF5
aF5
aF5
aF5
aF5
aF5
aF5
aF5
aF5
aF5
aF5
aF5
aF5
aF5
aF5
aF5
aF5
asg21
(lp27
F4
aF4
aF5
aF4
aF4
aF5
aF5
aF5
aF5
aF5
aF5
aF5
aF5
aF5
aF5
aF5
aF5
aF5
aF5
aF5
aF5
aF5
aF5
aF5
aF5
aF5
aF5
aF5
aF5
aF5
aF5
aF5
aF5
aF5
aF5
aF5
aF5
aF5
aF5
aF5
aF5
aF5
aF5
aF5
aF5
aF5
aF5
aF5
aF5
aF5
aF5
aF5
aF5
aF5
aF5
aF5
aF5
aF5
aF5
aF5
aF5
aF5
aF5
aF5
aF5
aF5
aF5
aF5
aF5
aF5
aF5
aF5
aF5
aF5
aF5
aF5
aF5
aF5
aF5
aF5
aF5
aF5
aF5
aF5
aF5
aF5
aF5
aF5
aF5
aF5
aF5
aF5
aF5
aF5
aF5
aF5
aF5
aF5
aF4
aF4
aF4
aF4
aF4
aF4
aF4
aF4
aF4
aF4
aF4
aF4
aF4
aF4
aF4
aF4
aF4
aF4
aF4
aF4
aF4
aF4
aF4
aF4
aF4
aF4
aF4
aF4
aF4
aF4
aF4
aF4
aF4
aF4
aF4
aF4
aF4
aF4
aF4
aF4
aF4
aF4
aF4
aF4
aF4
aF4
aF4
aF4
aF4
aF4
aF4
aF4
aF4
aF4
aF4
aF4
aF4
aF4
aF4
aF4
aF4
aF4
aF4
aF4
aF4
aF4
aF4
aF4
aF4
aF4
aF4
aF4
aF4
aF4
aF4
aF4
aF4
aF4
aF4
aF4
aF4
aF4
aF4
aF4
aF4
aF4
aF4
aF4
aF4
aF4
aF4
aF4
aF4
aF4
aF4
aF4
aF4
aF4
aF4
aF4
aF4
aF4
aF4
aF4
aF4
aF4
asS'k'
(lp28
F3
aF4
aF4
aF4
aF4
aF4
aF4
aF4
aF4
aF4
aF4
aF4
aF4
aF4
aF4
aF4
aF4
aF4
aF4
aF4
aF4
aF4
aF4
aF4
aF4
aF4
aF4
aF4
aF4
aF4
aF4
aF4
aF4
aF4
aF4
aF4
aF4
aF4
aF4
aF4
aF4
aF4
aF4
aF4
aF4
aF4
aF4
aF4
aF4
aF4
aF4
aF4
aF4
aF4
aF4
aF4
aF4
aF4
aF4
aF4
aF4
aF4
aF4
aF4
aF4
aF4
aF4
aF4
aF4
aF4
aF4
aF4
aF4
aF4
aF4
aF4
aF4
aF4
aF4
aF4
aF4
aF4
aF4
aF4
aF4
aF4
aF4
aF4
aF4
aF4
aF4
aF4
aF4
aF4
aF4
aF4
aF4
aF4
aF4
aF4
aF4
aF4
aF4
aF4
aF4
aF4
aF4
aF4
aF4
aF4
aF4
aF4
aF4
aF4
aF4
aF4
aF4
aF4
aF4
aF4
aF4
aF4
aF4
aF4
aF4
aF4
aF4
aF4
aF4
aF4
aF4
aF4
aF4
aF4
aF4
aF4
aF4
aF4
aF4
aF4
aF4
aF4
aF4
aF4
aF4
aF4
aF4
aF4
aF4
aF4
aF4
aF4
aF4
aF4
aF4
aF4
aF4
aF4
aF4
aF4
aF4
aF4
aF4
aF4
aF4
aF4
aF4
aF4
aF4
aF4
aF4
aF4
aF4
aF4
aF4
aF4
aF4
aF4
aF4
aF4
aF4
aF4
aF4
aF4
aF4
aF4
aF4
aF4
aF4
aF4
aF4
aF4
aF4
aF4
aF4
aF4
aF4
aF4
aF4
aF4
aF4
aF4
aF4
aF4
asS'T'
(lp29
F3
aF3
aF2
aF2
aF2
aF2
aF2
aF2
aF2
aF2
aF2
aF2
aF2
aF2
aF2
aF2
aF2
aF2
aF2
aF2
aF2
aF2
aF2
aF2
aF2
aF2
aF2
aF2
aF2
aF2
aF2
aF2
aF2
aF2
aF2
aF2
aF2
aF2
aF2
aF2
aF2
aF2
aF2
aF2
aF2
aF2
aF2
aF2
aF2
aF2
aF2
aF2
aF2
aF2
aF2
aF2
aF2
aF2
aF2
aF2
aF2
aF2
aF2
aF2
aF2
aF2
aF2
aF2
aF2
aF2
aF2
aF2
aF2
aF2
aF2
aF2
aF2
aF2
aF2
aF2
aF2
aF2
aF2
aF2
aF2
aF2
aF2
aF2
aF2
aF2
aF2
aF2
aF2
aF2
aF2
aF2
aF2
aF2
aF2
aF2
aF2
aF2
aF2
aF2
aF2
aF2
aF2
aF2
aF2
aF2
aF2
aF2
aF2
aF2
aF2
aF2
aF2
aF2
aF2
aF2
aF2
aF2
aF2
aF2
aF2
aF2
aF2
aF2
aF2
aF2
aF2
aF2
aF2
aF2
aF2
aF2
aF2
aF2
aF2
aF2
aF2
aF2
aF2
aF2
aF2
aF2
aF2
aF2
aF2
aF2
aF2
aF2
aF2
aF2
aF2
aF2
aF2
aF2
aF2
aF2
aF2
aF2
aF2
aF2
aF2
aF2
aF2
aF2
aF2
aF2
aF2
aF2
aF2
aF2
aF2
aF2
aF2
aF2
aF2
aF2
aF2
aF2
aF2
aF2
aF2
aF2
aF2
aF2
aF2
aF2
aF2
aF2
aF2
aF2
aF2
aF2
aF2
aF2
aF2
aF2
aF2
aF2
aF2
aF2
asg22
(lp30
F3
aF4
aF4
aF4
aF4
aF4
aF4
aF4
aF4
aF4
aF4
aF4
aF4
aF4
aF4
aF4
aF4
aF4
aF4
aF4
aF4
aF4
aF4
aF4
aF4
aF4
aF4
aF4
aF4
aF4
aF4
aF4
aF4
aF4
aF4
aF4
aF4
aF4
aF4
aF4
aF4
aF4
aF4
aF4
aF4
aF4
aF3
aF3
aF3
aF3
aF3
aF3
aF3
aF3
aF3
aF3
aF3
aF3
aF3
aF3
aF3
aF3
aF3
aF3
aF3
aF3
aF3
aF3
aF3
aF3
aF3
aF3
aF3
aF3
aF3
aF3
aF3
aF3
aF3
aF3
aF3
aF3
aF3
aF3
aF3
aF3
aF3
aF3
aF3
aF3
aF3
aF3
aF3
aF3
aF3
aF3
aF3
aF3
aF3
aF3
aF3
aF3
aF3
aF3
aF3
aF3
aF3
aF3
aF3
aF3
aF3
aF3
aF3
aF3
aF3
aF3
aF3
aF3
aF3
aF3
aF3
aF3
aF3
aF3
aF3
aF3
aF3
aF3
aF3
aF3
aF3
aF3
aF3
aF3
aF3
aF3
aF3
aF3
aF3
aF3
aF3
aF3
aF3
aF3
aF3
aF3
aF2
aF2
aF2
aF2
aF2
aF2
aF2
aF2
aF2
aF2
aF2
aF2
aF2
aF2
aF2
aF2
aF2
aF2
aF2
aF2
aF2
aF2
aF2
aF2
aF2
aF2
aF2
aF2
aF2
aF2
aF2
aF2
aF2
aF2
aF2
aF2
aF2
aF2
aF2
aF2
aF2
aF2
aF2
aF2
aF2
aF2
aF2
aF2
aF2
aF2
aF2
aF2
aF2
aF2
aF2
aF2
aF2
aF2
assg12
(lp31
sg14
(lp32
F2
aF3
aF4
aF5
aF6
aF7
aF8
aF9
aF10
aF11
aF12
aF13
aF14
aF15
aF16
aF17
aF18
aF19
aF20
aF21
aF22
aF23
aF24
aF25
aF26
aF27
aF28
aF29
aF30
aF31
aF32
aF33
aF34
aF35
aF36
aF37
aF38
aF39
aF40
aF41
aF42
aF43
aF44
aF45
aF46
aF47
aF48
aF49
aF50
aF51
aF52
aF53
aF54
aF55
aF56
aF57
aF58
aF59
aF60
aF61
aF62
aF63
aF64
aF65
aF66
aF67
aF68
aF69
aF70
aF71
aF72
aF73
aF74
aF75
aF76
aF77
aF78
aF79
aF80
aF81
aF82
aF83
aF84
aF85
aF86
aF87
aF88
aF89
aF90
aF91
aF92
aF93
aF94
aF95
aF96
aF97
aF98
aF99
aF100
aF101
aF102
aF103
aF104
aF105
aF106
aF107
aF108
aF109
aF110
aF111
aF112
aF113
aF114
aF115
aF116
aF117
aF118
aF119
aF120
aF121
aF122
aF123
aF124
aF125
aF126
aF127
aF128
aF129
aF130
aF131
aF132
aF133
aF134
aF135
aF136
aF137
aF138
aF139
aF140
aF141
aF142
aF143
aF144
aF145
aF146
aF147
aF148
aF149
aF150
aF151
aF152
aF153
aF154
aF155
aF156
aF157
aF158
aF159
aF160
aF161
aF162
aF163
aF164
aF165
aF166
aF167
aF168
aF169
aF170
aF171
aF172
aF173
aF174
aF175
aF176
aF177
aF178
aF179
aF180
aF181
aF182
aF183
aF184
aF185
aF186
aF187
aF188
aF189
aF190
aF191
aF192
aF193
aF194
aF195
aF196
aF197
aF198
aF199
aF200
aF201
aF202
aF203
aF204
aF205
assS'2'
(dp33
g3
I2
sg4
(dp34
S'Uz_final'
p35
I00
sS'Uz_iterations'
p36
I00
sS'Ux_iterations'
p37
I00
sS'Uy'
p38
I00
sS'Ux'
p39
I00
sS'Uz'
p40
I00
sS'omega_iterations'
p41
I00
sS'k'
I00
sS'omega_final'
p42
I00
sS'T_iterations'
p43
I00
sS'T_final'
p44
I00
sS'p_rgh'
p45
I00
sS'p_rgh_final'
p46
I00
sS'T'
I00
sS'k_iterations'
p47
I00
sS'Uy_final'
p48
I00
sS'Uy_iterations'
p49
I00
sS'omega'
p50
I00
sS'k_final'
p51
I00
sS'Ux_final'
p52
I00
sS'p_rgh_iterations'
p53
I00
ssg8
(dp54
g35
(lp55
F0.030239769959999999
aF0.036851724019999997
aF0.01318632386
aF0.023563260820000001
aF0.024781854450000002
aF0.01305764089
aF0.01453375478
aF0.01280391314
aF0.0088950368520000003
aF0.0088099653490000002
aF0.0076855524180000001
aF0.0063115230400000001
aF0.0067433193799999996
aF0.006072154376
aF0.0051563209340000004
aF0.0050777863889999997
aF0.0046817128369999999
aF0.004236057253
aF0.0040344836009999999
aF0.0038020857760000001
aF0.0035447085650000001
aF0.0033589946520000001
aF0.003125218316
aF0.0029018081589999999
aF0.002720592093
aF0.002565687011
aF0.0024467916409999999
aF0.0023442962489999999
aF0.0022077819100000001
aF0.0020624626510000002
aF0.0019327710289999999
aF0.0018254235390000001
aF0.001762026554
aF0.001713742777
aF0.0016508524969999999
aF0.0015854340690000001
aF0.001544279436
aF0.001541856014
aF0.001555763799
aF0.0015581437049999999
aF0.0015412249669999999
aF0.001516346925
aF0.0014967886780000001
aF0.001483797594
aF0.0014663355729999999
aF0.001442406503
aF0.0014149505319999999
aF0.0013872739140000001
aF0.0013624968310000001
aF0.0013431354300000001
aF0.00132351906
aF0.001297165141
aF0.0012699454120000001
aF0.00124668712
aF0.001228113357
aF0.001209049282
aF0.0011872744970000001
aF0.0011634462989999999
aF0.0011411287049999999
aF0.0011211519689999999
aF0.0011015255500000001
aF0.0010808427919999999
aF0.001058148832
aF0.00103411824
aF0.0010095704019999999
aF0.00098538992820000008
aF0.00096209313700000001
aF0.00092926255930000001
aF0.00089941069629999998
aF0.00087790154740000005
aF0.00086133999230000001
aF0.00084356415840000003
aF0.000822124713
aF0.00079970303080000005
aF0.00078027409369999998
aF0.0007660697864
aF0.00075471896530000001
aF0.00074388347129999998
aF0.00073331319800000005
aF0.00072301590399999999
aF0.00071372415959999999
aF0.00070519457840000001
aF0.00069650753930000002
aF0.0006861603309
aF0.00067374806600000001
aF0.00065950318319999996
aF0.00064411841729999995
aF0.00062725609959999999
aF0.00060971785809999998
aF0.00059080571499999998
aF0.00057004463090000001
aF0.00054776658550000003
aF0.00052449051099999998
aF0.00050041723790000001
aF0.00047554940299999999
aF0.00045028774570000002
aF0.0004249336152
aF0.0003994502439
aF0.00064175388160000004
aF0.00061068430119999996
aF0.00057736373359999998
aF0.00053659951110000001
aF0.00049170858410000002
aF0.00044933208550000002
aF0.00041265479779999998
aF0.00038036299119999998
aF0.00034991578870000002
aF0.00032034617520000001
aF0.00029239503810000002
aF0.00026718411969999997
aF0.0002451866554
aF0.0002259746194
aF0.000208585578
aF0.0001927625011
aF0.00017837391299999999
aF0.00016536062190000001
aF0.000153564663
aF0.0001431339196
aF0.00013386239860000001
aF0.0001257075744
aF0.00011836253149999999
aF0.0001116545198
aF0.00010528255610000001
aF9.9883889290000003e-05
aF9.4458202959999999e-05
aF8.7843636950000006e-05
aF8.1960974330000003e-05
aF7.6393056550000006e-05
aF7.1346851340000006e-05
aF6.6801878390000005e-05
aF6.2607768950000007e-05
aF5.8667151969999999e-05
aF5.4867045649999997e-05
aF5.129473895e-05
aF4.7924391289999998e-05
aF4.4807337449999997e-05
aF4.19398657e-05
aF3.9216811019999997e-05
aF3.6638173800000003e-05
aF3.423689737e-05
aF3.2073088259999999e-05
aF3.0123463120000001e-05
aF2.8381391200000001e-05
aF2.6884371120000002e-05
aF2.5667808489999999e-05
aF2.4708737479999999e-05
aF2.396530556e-05
aF2.340734588e-05
aF2.3084902410000002e-05
aF2.2927928909999999e-05
aF2.2858891339999998e-05
aF2.282746997e-05
aF2.28146141e-05
aF2.284525383e-05
aF2.2857810119999999e-05
aF2.2851744479999999e-05
aF2.2821626120000001e-05
aF2.2725644610000001e-05
aF2.250804223e-05
aF2.2332595049999999e-05
aF2.2068513769999999e-05
aF2.1666414529999999e-05
aF2.1178788810000001e-05
aF2.062024553e-05
aF2.0054227860000001e-05
aF1.9531018480000001e-05
aF1.9022276730000001e-05
aF1.8548614189999999e-05
aF1.8122865300000001e-05
aF1.776006732e-05
aF1.761550834e-05
aF1.7767549870000001e-05
aF1.8083098909999999e-05
aF1.850805307e-05
aF1.9016610519999999e-05
aF1.9595877289999999e-05
aF2.02443613e-05
aF2.0955362919999999e-05
aF2.165646591e-05
aF2.2319442469999999e-05
aF2.293323065e-05
aF2.3425114990000002e-05
aF2.3832848129999999e-05
aF2.4179384269999999e-05
aF2.443027193e-05
aF2.4517126069999999e-05
aF2.4395237180000001e-05
aF2.4153208209999999e-05
aF2.3778938869999999e-05
aF2.3262944859999999e-05
aF2.260556848e-05
aF2.1870900879999999e-05
aF2.1094214299999998e-05
aF2.0281468590000001e-05
aF1.944835415e-05
aF1.864697683e-05
aF1.801177678e-05
aF1.7649778020000001e-05
aF1.7477721210000001e-05
aF1.748682279e-05
aF1.7691210040000001e-05
aF1.804246712e-05
aF1.8511013129999999e-05
aF1.8511013129999999e-05
asg36
(lp56
F4
aF4
aF5
aF4
aF4
aF5
aF5
aF5
aF5
aF5
aF5
aF5
aF5
aF5
aF5
aF5
aF5
aF5
aF5
aF5
aF5
aF5
aF5
aF5
aF5
aF5
aF5
aF5
aF5
aF5
aF5
aF5
aF5
aF5
aF5
aF5
aF5
aF5
aF5
aF5
aF5
aF5
aF5
aF5
aF5
aF5
aF5
aF5
aF5
aF5
aF5
aF5
aF5
aF5
aF5
aF5
aF5
aF5
aF5
aF5
aF5
aF5
aF5
aF5
aF5
aF5
aF5
aF5
aF5
aF5
aF5
aF5
aF5
aF5
aF5
aF5
aF5
aF5
aF5
aF5
aF5
aF5
aF5
aF5
aF5
aF5
aF5
aF5
aF5
aF5
aF5
aF5
aF5
aF5
aF5
aF5
aF5
aF5
aF4
aF4
aF4
aF4
aF4
aF4
aF4
aF4
aF4
aF4
aF4
aF4
aF4
aF4
aF4
aF4
aF4
aF4
aF4
aF4
aF4
aF4
aF4
aF4
aF4
aF4
aF4
aF4
aF4
aF4
aF4
aF4
aF4
aF4
aF4
aF4
aF4
aF4
aF4
aF4
aF4
aF4
aF4
aF4
aF4
aF4
aF4
aF4
aF4
aF4
aF4
aF4
aF4
aF4
aF4
aF4
aF4
aF4
aF4
aF4
aF4
aF4
aF4
aF4
aF4
aF4
aF4
aF4
aF4
aF4
aF4
aF4
aF4
aF4
aF4
aF4
aF4
aF4
aF4
aF4
aF4
aF4
aF4
aF4
aF4
aF4
aF4
aF4
aF4
aF4
aF4
aF4
aF4
aF4
aF4
aF4
aF4
aF4
aF4
aF4
aF4
aF4
aF4
aF4
aF4
aF4
asg37
(lp57
F4
aF5
aF5
aF5
aF5
aF5
aF5
aF5
aF5
aF5
aF5
aF5
aF5
aF5
aF5
aF5
aF5
aF5
aF5
aF5
aF5
aF5
aF5
aF5
aF5
aF5
aF5
aF5
aF5
aF5
aF5
aF5
aF5
aF5
aF5
aF5
aF5
aF5
aF5
aF5
aF5
aF5
aF5
aF5
aF5
aF5
aF5
aF5
aF5
aF5
aF4
aF4
aF4
aF4
aF4
aF4
aF4
aF4
aF4
aF4
aF4
aF4
aF4
aF4
aF4
aF4
aF4
aF4
aF4
aF4
aF4
aF4
aF4
aF4
aF4
aF4
aF4
aF4
aF4
aF4
aF4
aF4
aF4
aF4
aF4
aF4
aF4
aF4
aF4
aF4
aF4
aF4
aF4
aF4
aF4
aF4
aF4
aF4
aF4
aF4
aF4
aF4
aF4
aF4
aF4
aF4
aF4
aF4
aF4
aF4
aF4
aF4
aF4
aF4
aF4
aF4
aF4
aF4
aF4
aF4
aF4
aF4
aF4
aF4
aF4
aF4
aF4
aF4
aF4
aF4
aF4
aF4
aF4
aF4
aF4
aF4
aF4
aF4
aF4
aF4
aF4
aF4
aF4
aF4
aF4
aF4
aF4
aF4
aF4
aF4
aF4
aF4
aF4
aF4
aF4
aF4
aF4
aF4
aF5
aF5
aF5
aF5
aF5
aF5
aF5
aF5
aF5
aF5
aF5
aF5
aF5
aF5
aF5
aF5
aF5
aF5
aF5
aF5
aF5
aF5
aF5
aF5
aF5
aF5
aF5
aF5
aF5
aF5
aF5
aF5
aF5
aF5
aF5
aF5
aF5
aF5
aF5
aF5
aF5
aF5
aF5
aF5
aF5
aF5
asg38
(lp58
F0.13263148659999999
aF0.37153311509999998
aF0.19080209349999999
aF0.037714373969999999
aF0.1764168847
aF0.15630983400000001
aF0.053256185900000003
aF0.1181066068
aF0.063588323200000005
aF0.032124468199999999
aF0.064649289400000004
aF0.039025736890000003
aF0.026529444419999999
aF0.035202291820000002
aF0.019695556879999999
aF0.01647282248
aF0.021111803549999999
aF0.013436740670000001
aF0.0140082955
aF0.01469755792
aF0.01070568108
aF0.0095463738400000005
aF0.0092435417399999997
aF0.0080375474150000004
aF0.0086053386639999997
aF0.0082552515860000002
aF0.0071925771519999997
aF0.0067446048749999999
aF0.0065904346449999996
aF0.0065323403179999998
aF0.0064526765519999996
aF0.0061556588739999996
aF0.0057939480539999999
aF0.0056320991240000002
aF0.0055568975920000001
aF0.0055038700950000002
aF0.0053717990399999999
aF0.005153679439
aF0.0049767363449999998
aF0.0048805276089999997
aF0.0047972327890000001
aF0.0047282737349999999
aF0.0046479603690000003
aF0.004526371528
aF0.0043926236360000001
aF0.0042978778460000004
aF0.0042110376959999998
aF0.0041133237999999997
aF0.0040079203169999999
aF0.0038952572950000002
aF0.0037781832190000001
aF0.0036865818959999999
aF0.0036114855059999999
aF0.003531873221
aF0.0034462571660000001
aF0.0033666511519999998
aF0.003297156834
aF0.0032297152440000001
aF0.0031669189849999999
aF0.003103374304
aF0.003037787469
aF0.0029696849739999998
aF0.002901324389
aF0.0028310140130000001
aF0.0027564929860000001
aF0.0026779780030000001
aF0.002597978317
aF0.0025432184259999999
aF0.0024804073549999999
aF0.002403577553
aF0.0023210811539999998
aF0.0022456766359999999
aF0.002180910621
aF0.0021260558430000001
aF0.0020758022670000001
aF0.0020257606089999999
aF0.0019751448130000001
aF0.0019283520629999999
aF0.0018888456620000001
aF0.001852798724
aF0.0018164003739999999
aF0.0017791686279999999
aF0.001741646958
aF0.0017005763629999999
aF0.001656634363
aF0.0016095124529999999
aF0.001558844167
aF0.0015050728760000001
aF0.0014487264019999999
aF0.0013912896310000001
aF0.001333147325
aF0.001274634587
aF0.001216095532
aF0.0011576161739999999
aF0.001099033408
aF0.001039590637
aF0.00097921163920000002
aF0.00091872655109999997
aF0.00085825100929999999
aF0.00079376337649999997
aF0.00073151214380000004
aF0.00067408940200000002
aF0.00061979505029999998
aF0.00056720914479999995
aF0.00051553458420000001
aF0.00046544638120000001
aF0.00041869824339999998
aF0.0003764241762
aF0.00033888051019999999
aF0.00030586676209999998
aF0.00027677112569999998
aF0.0002512172125
aF0.0002291490227
aF0.0002103285949
aF0.00019452710069999999
aF0.00018108371510000001
aF0.00016949248009999999
aF0.00015932381510000001
aF0.0001503537981
aF0.0001420822543
aF0.0001344644811
aF0.00012714007249999999
aF0.00012029906420000001
aF0.0001123295457
aF0.0001050671741
aF0.000100283524
aF9.5031004939999993e-05
aF9.0436640699999998e-05
aF8.5509888310000005e-05
aF8.0225245660000004e-05
aF7.5004983800000004e-05
aF7.0194027459999998e-05
aF6.5842888650000005e-05
aF6.1801753220000003e-05
aF5.7924250519999998e-05
aF5.4123331360000003e-05
aF5.0486442329999997e-05
aF4.7108300209999997e-05
aF4.4034398289999999e-05
aF4.1196811590000002e-05
aF3.852828563e-05
aF3.6035919259999999e-05
aF3.3747284469999999e-05
aF3.1761566339999999e-05
aF3.0072447019999998e-05
aF2.8572584170000001e-05
aF2.726335893e-05
aF2.619046773e-05
aF2.531773762e-05
aF2.460421068e-05
aF2.4029048610000001e-05
aF2.3570220210000001e-05
aF2.322768017e-05
aF2.3003864530000001e-05
aF2.2836042020000001e-05
aF2.2692352610000001e-05
aF2.2529971079999999e-05
aF2.2334077879999999e-05
aF2.2090935549999998e-05
aF2.183849543e-05
aF2.1549617400000001e-05
aF2.1196687170000001e-05
aF2.078592841e-05
aF2.0368504119999999e-05
aF1.9934788040000001e-05
aF1.9527496960000001e-05
aF1.9135703939999999e-05
aF1.8569387730000001e-05
aF1.8070247649999999e-05
aF1.773863476e-05
aF1.7539236899999999e-05
aF1.7434074149999999e-05
aF1.7349070740000001e-05
aF1.7262379040000001e-05
aF1.724698993e-05
aF1.7331032630000001e-05
aF1.7505001610000002e-05
aF1.7775163210000001e-05
aF1.808816662e-05
aF1.8435980999999999e-05
aF1.877712781e-05
aF1.9265278310000001e-05
aF1.9704246510000001e-05
aF1.9997598339999998e-05
aF2.0138986520000001e-05
aF2.021085846e-05
aF2.0264551159999999e-05
aF2.01071795e-05
aF1.9946194440000002e-05
aF1.9822448259999999e-05
aF1.969554874e-05
aF1.9489976640000001e-05
aF1.9195086079999999e-05
aF1.8807666330000001e-05
aF1.837491697e-05
aF1.7939283439999999e-05
aF1.7535393179999999e-05
aF1.7253824280000002e-05
aF1.7007945310000001e-05
aF1.682198411e-05
aF1.6736961409999999e-05
aF1.6709141790000001e-05
aF1.6744718929999999e-05
aF1.6744718929999999e-05
asg39
(lp59
F0.090461159550000003
aF0.43159647820000002
aF0.23054640949999999
aF0.032750319780000002
aF0.22125922470000001
aF0.1875802738
aF0.04768947615
aF0.12827753189999999
aF0.069951007910000002
aF0.029582145600000002
aF0.072886600369999999
aF0.040227456129999999
aF0.024823098080000001
aF0.038466467189999999
aF0.017670458310000001
aF0.016099929459999999
aF0.02290647145
aF0.011566734150000001
aF0.01239530856
aF0.01385406927
aF0.0085725846459999994
aF0.0092778228850000002
aF0.0096478014559999992
aF0.0074711415629999996
aF0.0080547427569999993
aF0.0080011894409999992
aF0.0070653367650000002
aF0.0071409766240000004
aF0.0070800506839999999
aF0.0069644205580000002
aF0.0072080820839999999
aF0.0071903131960000003
aF0.0070563912309999999
aF0.0070389211429999999
aF0.006997850291
aF0.0070230818119999998
aF0.0071155663490000002
aF0.007126359564
aF0.0070638015340000002
aF0.0069591754090000003
aF0.0068618433550000002
aF0.0068284300270000002
aF0.0067899896919999996
aF0.0066850234990000002
aF0.0065337327360000001
aF0.0063732195519999998
aF0.0062305010409999997
aF0.0060852421559999996
aF0.0059214309819999996
aF0.0057284403890000002
aF0.0055253270319999999
aF0.005341238828
aF0.0051698844589999999
aF0.0050152264680000001
aF0.0048699554580000004
aF0.0047312968340000004
aF0.0045952052800000004
aF0.0044604567600000002
aF0.0043299544019999997
aF0.004206068518
aF0.004091004899
aF0.0039809056530000003
aF0.0038752129679999999
aF0.0037743259120000001
aF0.0036770173770000001
aF0.0035862030980000001
aF0.0035047445189999998
aF0.0034255681269999999
aF0.0033487293960000001
aF0.0032755981310000001
aF0.0032071735470000002
aF0.0031399140849999998
aF0.0030710089690000001
aF0.0030005095079999999
aF0.0029276541489999999
aF0.0028541955830000002
aF0.0027803703109999999
aF0.0027087350229999998
aF0.002637779282
aF0.002567361387
aF0.0024967102579999999
aF0.0024265017109999999
aF0.0023559768279999998
aF0.0022841230919999999
aF0.0022100920029999999
aF0.0021320141460000001
aF0.002050610862
aF0.0019677584719999999
aF0.0018841194880000001
aF0.001798862487
aF0.0017138815750000001
aF0.001630161643
aF0.0015475829650000001
aF0.0014666838039999999
aF0.001387105648
aF0.001310053819
aF0.001236356721
aF0.0011652113429999999
aF0.001096007701
aF0.0010283063209999999
aF0.00096235394419999997
aF0.0008980672514
aF0.00083627626920000002
aF0.00077740865569999999
aF0.00072127773609999995
aF0.00066858292250000003
aF0.00061909130180000003
aF0.00057256685880000002
aF0.00052940205280000005
aF0.00048922181109999996
aF0.00045158002270000001
aF0.00041677752870000002
aF0.00038483541740000002
aF0.00035559216019999997
aF0.00032891190660000002
aF0.00030458641869999999
aF0.00028246516670000002
aF0.00026233028909999998
aF0.00024419211360000002
aF0.0002278355707
aF0.00021303156210000001
aF0.00019964809040000001
aF0.00018746487089999999
aF0.00017663095630000001
aF0.00016686453589999999
aF0.00015781406579999999
aF0.0001495257634
aF0.00014159938330000001
aF0.00013415614870000001
aF0.00012721413039999999
aF0.0001206801777
aF0.0001144718865
aF0.00010849327420000001
aF0.0001027410238
aF9.7163434450000001e-05
aF9.1749217649999998e-05
aF8.6596456519999994e-05
aF8.1693409409999994e-05
aF7.7013261239999999e-05
aF7.2577256300000002e-05
aF6.8410891460000007e-05
aF6.4456031930000006e-05
aF6.078451666e-05
aF5.7412744979999997e-05
aF5.4375165719999999e-05
aF5.1583553259999999e-05
aF4.9021482429999998e-05
aF4.6681220739999998e-05
aF4.4571075619999998e-05
aF4.2661292869999997e-05
aF4.0982107680000003e-05
aF3.9536543309999999e-05
aF3.8322109619999997e-05
aF3.7292616850000002e-05
aF3.6470985780000003e-05
aF3.5809983699999999e-05
aF3.5288790629999998e-05
aF3.4871481999999997e-05
aF3.4523879839999998e-05
aF3.4124260589999998e-05
aF3.3726574390000002e-05
aF3.3305438920000003e-05
aF3.2822517799999999e-05
aF3.2271403180000003e-05
aF3.163606003e-05
aF3.0932297760000001e-05
aF3.016025267e-05
aF2.931561804e-05
aF2.8427112069999999e-05
aF2.762748374e-05
aF2.6965722559999999e-05
aF2.640798736e-05
aF2.5908249990000001e-05
aF2.5458650089999999e-05
aF2.5039239100000001e-05
aF2.4676040390000002e-05
aF2.4393331479999999e-05
aF2.424815711e-05
aF2.4285708759999999e-05
aF2.4463171699999998e-05
aF2.4726594359999999e-05
aF2.5077121329999999e-05
aF2.5541280560000001e-05
aF2.6099084939999999e-05
aF2.6719384249999999e-05
aF2.7335101319999999e-05
aF2.7932297389999999e-05
aF2.851869912e-05
aF2.8999375350000001e-05
aF2.933585724e-05
aF2.950851277e-05
aF2.9488685419999999e-05
aF2.9262670519999999e-05
aF2.8869326460000001e-05
aF2.8320472990000001e-05
aF2.7689731590000001e-05
aF2.705163227e-05
aF2.6477627389999999e-05
aF2.5957488899999998e-05
aF2.5494906379999999e-05
aF2.5073913969999999e-05
aF2.4703962149999999e-05
aF2.4363437749999999e-05
aF2.4363437749999999e-05
asg40
(lp60
F0.43272478780000001
aF0.42215397199999999
aF0.2145744218
aF0.2475151273
aF0.25227376899999998
aF0.1985235179
aF0.2264224665
aF0.20427793990000001
aF0.14066877110000001
aF0.14373863100000001
aF0.12364400289999999
aF0.095541924629999997
aF0.099422826610000001
aF0.090036652189999997
aF0.076920471949999999
aF0.075563515949999993
aF0.068015667789999998
aF0.060973611859999999
aF0.058490725719999997
aF0.055151135140000002
aF0.051491916309999997
aF0.04846412697
aF0.04471835155
aF0.041574165150000002
aF0.03913413768
aF0.036888489699999999
aF0.03492170881
aF0.033164122410000003
aF0.03121152546
aF0.029253666500000001
aF0.02757436705
aF0.02610043838
aF0.025232152479999999
aF0.024732610790000002
aF0.024075989690000001
aF0.023181670670000001
aF0.022438825150000001
aF0.022216415270000001
aF0.022344324879999999
aF0.02238383268
aF0.022092414250000001
aF0.021672422829999999
aF0.02137136274
aF0.021209973230000002
aF0.021037370190000002
aF0.020778716669999999
aF0.02045796658
aF0.020097534510000001
aF0.019762380369999999
aF0.01951069049
aF0.019267547539999999
aF0.018957264170000002
aF0.018660646999999999
aF0.018405987839999999
aF0.01819030873
aF0.01797114901
aF0.017728521479999999
aF0.017464615570000001
aF0.017204595810000001
aF0.016962197429999999
aF0.01673271225
aF0.01647550758
aF0.016211884100000001
aF0.015952030119999999
aF0.015679021899999999
aF0.01541335525
aF0.015147575700000001
aF0.01473034786
aF0.014343319
aF0.014070207879999999
aF0.013860139089999999
aF0.01363616282
aF0.01336304653
aF0.013044200719999999
aF0.01275443775
aF0.01251531224
aF0.01228997378
aF0.01206755965
aF0.011843656060000001
aF0.011631953340000001
aF0.01144346662
aF0.011284976739999999
aF0.01114461454
aF0.01100247714
aF0.01083600694
aF0.01065573547
aF0.010453132990000001
aF0.01022873044
aF0.0099771964040000008
aF0.009705905632
aF0.0094062531500000001
aF0.0090793371319999993
aF0.0087373700510000006
aF0.0083768470199999997
aF0.0080046120479999993
aF0.007620407115
aF0.0072314969529999997
aF0.006839913427
aF0.0064534753920000004
aF0.0061588181189999999
aF0.0058508140369999996
aF0.005484488345
aF0.0050888990730000002
aF0.0047115853609999998
aF0.0043815508830000001
aF0.0040841517029999996
aF0.0037989876540000002
aF0.0035170747920000001
aF0.0032381505100000001
aF0.002977831495
aF0.0027421701740000001
aF0.0025317457399999998
aF0.0023381857979999999
aF0.0021582801360000002
aF0.0019919282499999999
aF0.0018414223310000001
aF0.0017059832049999999
aF0.0015844778360000001
aF0.0014752375979999999
aF0.001377145908
aF0.001288087873
aF0.001207201145
aF0.0011332457649999999
aF0.0010724831280000001
aF0.0010157530409999999
aF0.00095179877499999995
aF0.00089450986539999996
aF0.00083916961169999997
aF0.00078819775929999997
aF0.00074159466759999996
aF0.00069788337480000001
aF0.0006561647413
aF0.00061538365489999995
aF0.00057660053470000002
aF0.00054025527000000002
aF0.00050601257230000005
aF0.00047420298970000002
aF0.00044417281359999998
aF0.00041584635880000001
aF0.00038933208399999998
aF0.00036438142190000001
aF0.00034191333770000002
aF0.00032186861950000002
aF0.000304957871
aF0.00029111740919999997
aF0.00027956311790000002
aF0.00026965479629999998
aF0.00026196085320000001
aF0.00025651474670000001
aF0.00025271037750000002
aF0.00024999685209999999
aF0.00024870901629999999
aF0.00024869963149999998
aF0.00024897659009999999
aF0.00024903150040000001
aF0.00024881545400000002
aF0.00024852415159999999
aF0.00024806100319999999
aF0.00024686648810000002
aF0.00024561669569999998
aF0.00024336499050000001
aF0.00023951910249999999
aF0.00023451084590000001
aF0.00022873634739999999
aF0.00022313951279999999
aF0.0002176633304
aF0.00021202947090000001
aF0.00020714102040000001
aF0.00020245378779999999
aF0.00019843225800000001
aF0.00019621876910000001
aF0.00019640554179999999
aF0.00019851280999999999
aF0.00020177634209999999
aF0.00020617496550000001
aF0.0002113199162
aF0.00021675425579999999
aF0.00022260872999999999
aF0.00022823620899999999
aF0.00023373864939999999
aF0.00023903322039999999
aF0.00024325616070000001
aF0.00024718727799999998
aF0.00025109052050000002
aF0.000254402064
aF0.0002565204735
aF0.00025705157649999998
aF0.00025660619979999999
aF0.00025456996799999999
aF0.00025095174349999997
aF0.00024601459229999997
aF0.0002398493539
aF0.0002331373949
aF0.0002259366701
aF0.0002183367002
aF0.0002107502338
aF0.0002040309498
aF0.00019961766869999999
aF0.00019704176700000001
aF0.0001963505317
aF0.0001976794204
aF0.0002003846216
aF0.0002039521133
aF0.0002039521133
asg41
(lp61
F3
aF4
aF4
aF4
aF4
aF4
aF4
aF4
aF4
aF4
aF4
aF4
aF4
aF4
aF4
aF4
aF4
aF4
aF4
aF4
aF4
aF4
aF4
aF4
aF4
aF4
aF4
aF4
aF4
aF4
aF4
aF4
aF4
aF4
aF4
aF4
aF4
aF4
aF4
aF4
aF4
aF4
aF4
aF4
aF4
aF4
aF3
aF3
aF3
aF3
aF3
aF3
aF3
aF3
aF3
aF3
aF3
aF3
aF3
aF3
aF3
aF3
aF3
aF3
aF3
aF3
aF3
aF3
aF3
aF3
aF3
aF3
aF3
aF3
aF3
aF3
aF3
aF3
aF3
aF3
aF3
aF3
aF3
aF3
aF3
aF3
aF3
aF3
aF3
aF3
aF3
aF3
aF3
aF3
aF3
aF3
aF3
aF3
aF3
aF3
aF3
aF3
aF3
aF3
aF3
aF3
aF3
aF3
aF3
aF3
aF3
aF3
aF3
aF3
aF3
aF3
aF3
aF3
aF3
aF3
aF3
aF3
aF3
aF3
aF3
aF3
aF3
aF3
aF3
aF3
aF3
aF3
aF3
aF3
aF3
aF3
aF3
aF3
aF3
aF3
aF3
aF3
aF3
aF3
aF3
aF3
aF2
aF2
aF2
aF2
aF2
aF2
aF2
aF2
aF2
aF2
aF2
aF2
aF2
aF2
aF2
aF2
aF2
aF2
aF2
aF2
aF2
aF2
aF2
aF2
aF2
aF2
aF2
aF2
aF2
aF2
aF2
aF2
aF2
aF2
aF2
aF2
aF2
aF2
aF2
aF2
aF2
aF2
aF2
aF2
aF2
aF2
aF2
aF2
aF2
aF2
aF2
aF2
aF2
aF2
aF2
aF2
aF2
aF2
asg53
(lp62
F22
aF9
aF16
aF17
aF14
aF17
aF16
aF14
aF16
aF16
aF15
aF16
aF15
aF14
aF16
aF13
aF13
aF16
aF11
aF12
aF14
aF12
aF11
aF12
aF11
aF11
aF12
aF10
aF10
aF11
aF9
aF10
aF10
aF8
aF8
aF8
aF8
aF8
aF8
aF8
aF8
aF8
aF7
aF7
aF7
aF7
aF7
aF7
aF6
aF7
aF7
aF6
aF6
aF6
aF6
aF6
aF6
aF6
aF6
aF6
aF6
aF6
aF6
aF6
aF6
aF5
aF6
aF6
aF5
aF5
aF6
aF5
aF5
aF5
aF5
aF5
aF5
aF5
aF5
aF5
aF5
aF5
aF5
aF5
aF5
aF5
aF5
aF5
aF5
aF5
aF5
aF5
aF5
aF5
aF6
aF6
aF6
aF6
aF6
aF6
aF6
aF6
aF6
aF6
aF6
aF6
aF6
aF6
aF6
aF6
aF6
aF6
aF6
aF6
aF6
aF6
aF6
aF6
aF6
aF6
aF6
aF6
aF6
aF6
aF6
aF6
aF6
aF6
aF6
aF6
aF6
aF6
aF6
aF6
aF6
aF6
aF6
aF6
aF6
aF6
aF6
aF6
aF6
aF6
aF6
aF6
aF6
aF7
aF7
aF7
aF7
aF7
aF7
aF7
aF7
aF7
aF7
aF7
aF7
aF7
aF7
aF7
aF7
aF6
aF6
aF6
aF6
aF6
aF6
aF6
aF7
aF7
aF7
aF7
aF7
aF7
aF7
aF7
aF7
aF7
aF7
aF7
aF7
aF7
aF7
aF7
aF7
aF7
aF7
aF7
aF7
aF7
aF7
aF7
aF7
aF6
aF7
aF6
aF6
aF7
aF7
aF7
aF7
aF7
asS'k'
(lp63
F0.76176506909999997
aF0.64783895400000002
aF0.46611700849999999
aF0.3853572347
aF0.3948665194
aF0.28032063330000001
aF0.1927436434
aF0.1729205207
aF0.14388935159999999
aF0.1245342765
aF0.11463087330000001
aF0.086381901210000001
aF0.070889790339999995
aF0.065391704290000005
aF0.056098129080000003
aF0.050950915100000001
aF0.047608181479999997
aF0.041204610109999998
aF0.038689306610000002
aF0.037171577040000001
aF0.034730507139999998
aF0.033326353879999999
aF0.032131628750000002
aF0.030844976440000001
aF0.030397689370000001
aF0.03013457747
aF0.029754513020000001
aF0.029566595809999999
aF0.029474615789999999
aF0.029490663010000001
aF0.029653753009999999
aF0.029806486980000001
aF0.030083185870000001
aF0.03051678448
aF0.030987492639999999
aF0.031395477880000001
aF0.031698929639999998
aF0.032022650139999997
aF0.03221687082
aF0.032241840420000001
aF0.032172902849999997
aF0.031971794019999999
aF0.031513073430000003
aF0.030861502419999999
aF0.030165539969999999
aF0.029231620869999999
aF0.028160548819999999
aF0.026980761079999999
aF0.025846262370000001
aF0.024712523810000001
aF0.02349559398
aF0.02234788901
aF0.021207501850000001
aF0.020121390440000001
aF0.019099323170000002
aF0.01814443458
aF0.017277853070000002
aF0.016506136049999998
aF0.01583680216
aF0.015267047109999999
aF0.01475104126
aF0.01426951982
aF0.013800604350000001
aF0.01334182825
aF0.012907867490000001
aF0.01248613218
aF0.012070762380000001
aF0.01167807417
aF0.01130500871
aF0.01093829374
aF0.010573663739999999
aF0.01021881447
aF0.0098812088920000006
aF0.009556901122
aF0.0092423324680000005
aF0.0089535659850000001
aF0.0087183971240000005
aF0.0085353972009999998
aF0.0083905409669999993
aF0.0082689979549999994
aF0.0081630270929999998
aF0.0080647034489999998
aF0.0079681217789999998
aF0.0078649208839999991
aF0.0077562640380000004
aF0.0076372860619999998
aF0.0075113574820000004
aF0.0073729435669999998
aF0.0072243655989999997
aF0.0070660849539999999
aF0.006898903231
aF0.0067190532579999998
aF0.006527439956
aF0.0063259522089999997
aF0.0061140383350000004
aF0.0058930505939999997
aF0.0056623441249999996
aF0.0054218051420000003
aF0.0051700512999999998
aF0.0049131529369999998
aF0.0046499618960000001
aF0.0043811661189999997
aF0.0041126223400000002
aF0.0038481833199999998
aF0.0035899193840000002
aF0.0033403379450000002
aF0.0031038070609999998
aF0.002880784201
aF0.002672574774
aF0.0024787017509999999
aF0.0022993804410000001
aF0.0021346740499999998
aF0.0019836625380000002
aF0.0018457039020000001
aF0.0017208857559999999
aF0.001607960496
aF0.0015060217649999999
aF0.001414634236
aF0.001332045342
aF0.001256934254
aF0.001188577414
aF0.001126122815
aF0.001068353424
aF0.0010140704459999999
aF0.00096232046000000002
aF0.0009135402676
aF0.00086705593680000003
aF0.00082229655799999997
aF0.00077919160369999997
aF0.00073754336879999999
aF0.00069729549369999995
aF0.00065856103149999998
aF0.00062143229169999998
aF0.00058598219039999999
aF0.00055199526590000005
aF0.00051972853710000001
aF0.00048897674520000003
aF0.00045972843489999998
aF0.0004318660829
aF0.00040532362300000003
aF0.0003803436645
aF0.00035681865479999999
aF0.00033488278270000002
aF0.00031456696400000001
aF0.00029597458710000003
aF0.00027947438959999998
aF0.00026544774000000001
aF0.00025324420049999997
aF0.00024221655910000001
aF0.00023228533670000001
aF0.0002233471578
aF0.00021513596200000001
aF0.00020757012359999999
aF0.0002004715145
aF0.00019377976690000001
aF0.00018723108820000001
aF0.000180833634
aF0.00017468854889999999
aF0.00016904960260000001
aF0.00016351737579999999
aF0.0001581706805
aF0.0001530025002
aF0.00014791706140000001
aF0.0001428155777
aF0.00013751949010000001
aF0.00013217456300000001
aF0.00012694235950000001
aF0.0001218450545
aF0.0001170909199
aF0.00011281994600000001
aF0.0001093544267
aF0.0001067480213
aF0.00010523657299999999
aF0.000104592893
aF0.0001046133105
aF0.0001053229281
aF0.0001066157212
aF0.00010824616730000001
aF0.0001099706611
aF0.00011162704939999999
aF0.0001130017014
aF0.00011423079859999999
aF0.0001151421911
aF0.0001156545011
aF0.0001157635842
aF0.0001154374617
aF0.00011473663610000001
aF0.00011370371550000001
aF0.0001124306762
aF0.00011102892840000001
aF0.0001094871019
aF0.0001078934724
aF0.00010638689629999999
aF0.0001047304321
aF0.0001030352479
aF0.0001014080075
aF9.982706436e-05
aF9.8492851729999997e-05
aF9.7928970479999993e-05
aF9.7955648080000004e-05
aF9.8387068470000006e-05
aF9.9084074250000004e-05
aF0.00010003775819999999
aF0.00010003775819999999
asg48
(lp64
F0.01309845187
aF0.032055139650000002
aF0.01686591992
aF0.0023816399329999998
aF0.01513294368
aF0.01354565366
aF0.0040533762250000004
aF0.01002987973
aF0.0054410205699999999
aF0.0024186655110000001
aF0.0054309443589999999
aF0.003315676452
aF0.002104751705
aF0.0029086571009999999
aF0.0015696721020000001
aF0.0012492694339999999
aF0.00172871219
aF0.001094343215
aF0.0010752223700000001
aF0.001144074844
aF0.00079759245130000005
aF0.0007116179603
aF0.00072381781199999998
aF0.00062054886860000004
aF0.00064146450560000003
aF0.00061287022200000004
aF0.00051551651890000005
aF0.0004854582721
aF0.00049012877889999999
aF0.00048859964670000002
aF0.00047513910460000001
aF0.0004437868422
aF0.00041208811819999999
aF0.00040502956169999999
aF0.00040541496170000001
aF0.00040231350309999998
aF0.0003864455595
aF0.00036420690019999999
aF0.00034837049849999999
aF0.00034257340919999999
aF0.00033604162719999997
aF0.00032806444660000002
aF0.0003170259118
aF0.00030292858390000002
aF0.0002882286587
aF0.00027790519610000001
aF0.00026894763940000003
aF0.00025966895860000001
aF0.00025137647059999998
aF0.00024405259020000001
aF0.0002370235123
aF0.00023142577850000001
aF0.00022752551399999999
aF0.00022312279220000001
aF0.00021802328200000001
aF0.0002125675428
aF0.00020717849190000001
aF0.0002015992719
aF0.0001961068495
aF0.0001907277154
aF0.00018499107339999999
aF0.00017891692189999999
aF0.00017279670769999999
aF0.0001668637259
aF0.0001609365914
aF0.00015523806329999999
aF0.0002588648959
aF0.00025262433349999998
aF0.00024545422609999998
aF0.00023665808039999999
aF0.0002270307142
aF0.00021836458910000001
aF0.00021117945739999999
aF0.0002052137127
aF0.00019980862059999999
aF0.00019483146080000001
aF0.00019022769420000001
aF0.00018623914670000001
aF0.00018287886850000001
aF0.00017977147239999999
aF0.0001766572551
aF0.0001732174231
aF0.00016960374790000001
aF0.0001657251517
aF0.00016157315220000001
aF0.00015710022169999999
aF0.00015221553029999999
aF0.00014710338040000001
aF0.00014173472219999999
aF0.00013610948420000001
aF0.00013030741719999999
aF0.00012430438269999999
aF0.0001180080902
aF0.0001115356743
aF0.00010505200830000001
aF9.8431075399999998e-05
aF9.1707703710000002e-05
aF8.4958871129999999e-05
aF7.8301271639999998e-05
aF7.1455763279999995e-05
aF6.4981169790000005e-05
aF5.9145731359999997e-05
aF5.382929301e-05
aF4.8833903530000003e-05
aF4.407608124e-05
aF3.9650106459999997e-05
aF3.5632742449999999e-05
aF3.2077850000000003e-05
aF2.9008639969999999e-05
aF2.6404564039999999e-05
aF2.422540524e-05
aF2.2385226430000001e-05
aF2.0815407310000001e-05
aF1.949070634e-05
aF1.8361522289999999e-05
aF1.7353569919999999e-05
aF1.643634657e-05
aF1.558667398e-05
aF1.4799545600000001e-05
aF1.4060176179999999e-05
aF1.3355857379999999e-05
aF1.2692463989999999e-05
aF7.061103243e-06
aF6.5759145200000002e-06
aF1.049064612e-05
aF5.8650718290000002e-06
aF9.4965797260000002e-06
aF9.0130884089999999e-06
aF8.4726834809999999e-06
aF7.8856617730000007e-06
aF7.3224400309999996e-06
aF6.8143109979999996e-06
aF6.3641725049999997e-06
aF5.9522106209999998e-06
aF5.5544382950000002e-06
aF5.1671641960000004e-06
aF4.8022537590000002e-06
aF4.4715844679999997e-06
aF4.1754601159999998e-06
aF3.9104039699999997e-06
aF3.663040188e-06
aF3.4259777949999999e-06
aF3.211051739e-06
aF3.0303324409999999e-06
aF2.886203641e-06
aF2.7612703759999998e-06
aF2.6548136569999999e-06
aF2.5676598209999998e-06
aF2.499655893e-06
aF2.4434128429999999e-06
aF2.3925231369999999e-06
aF2.3508473149999998e-06
aF2.3143487000000001e-06
aF2.286342248e-06
aF2.2577600429999998e-06
aF2.2251965230000001e-06
aF2.190027334e-06
aF2.1628294630000001e-06
aF2.1365869930000002e-06
aF2.1167032990000002e-06
aF2.0940283459999999e-06
aF2.0694153259999999e-06
aF2.0425797359999999e-06
aF2.0125165209999999e-06
aF1.9795585390000001e-06
aF1.9485467870000001e-06
aF1.1194182189999999e-06
aF1.0878668509999999e-06
aF1.0615440509999999e-06
aF1.04798443e-06
aF1.042792149e-06
aF1.043819466e-06
aF1.0437922789999999e-06
aF1.0425291810000001e-06
aF1.0432101740000001e-06
aF1.0477848179999999e-06
aF1.055989156e-06
aF1.06660214e-06
aF1.078928877e-06
aF1.090705374e-06
aF1.8758401659999999e-06
aF1.9215597409999999e-06
aF1.9634784060000002e-06
aF1.992159047e-06
aF2.0082282749999999e-06
aF2.0201449519999999e-06
aF1.19363271e-06
aF1.1842096829999999e-06
aF1.1754745330000001e-06
aF1.170545085e-06
aF1.165965361e-06
aF1.1549741120000001e-06
aF1.1362401129999999e-06
aF1.110637816e-06
aF1.082269799e-06
aF1.0553637750000001e-06
aF1.0322653689999999e-06
aF1.0202309429999999e-06
aF1.0125761169999999e-06
aF1.005626721e-06
aF1.00254491e-06
aF1.00220574e-06
aF1.003302709e-06
aF1.003302709e-06
asg43
(lp65
F3
aF3
aF2
aF2
aF2
aF2
aF2
aF2
aF2
aF2
aF2
aF2
aF2
aF2
aF2
aF2
aF2
aF2
aF2
aF2
aF2
aF2
aF2
aF2
aF2
aF2
aF2
aF2
aF2
aF2
aF2
aF2
aF2
aF2
aF2
aF2
aF2
aF2
aF2
aF2
aF2
aF2
aF2
aF2
aF2
aF2
aF2
aF2
aF2
aF2
aF2
aF2
aF2
aF2
aF2
aF2
aF2
aF2
aF2
aF2
aF2
aF2
aF2
aF2
aF2
aF2
aF2
aF2
aF2
aF2
aF2
aF2
aF2
aF2
aF2
aF2
aF2
aF2
aF2
aF2
aF2
aF2
aF2
aF2
aF2
aF2
aF2
aF2
aF2
aF2
aF2
aF2
aF2
aF2
aF2
aF2
aF2
aF2
aF2
aF2
aF2
aF2
aF2
aF2
aF2
aF2
aF2
aF2
aF2
aF2
aF2
aF2
aF2
aF2
aF2
aF2
aF2
aF2
aF2
aF2
aF2
aF2
aF2
aF2
aF2
aF2
aF2
aF2
aF2
aF2
aF2
aF2
aF2
aF2
aF2
aF2
aF2
aF2
aF2
aF2
aF2
aF2
aF2
aF2
aF2
aF2
aF2
aF2
aF2
aF2
aF2
aF2
aF2
aF2
aF2
aF2
aF2
aF2
aF2
aF2
aF2
aF2
aF2
aF2
aF2
aF2
aF2
aF2
aF2
aF2
aF2
aF2
aF2
aF2
aF2
aF2
aF2
aF2
aF2
aF2
aF2
aF2
aF2
aF2
aF2
aF2
aF2
aF2
aF2
aF2
aF2
aF2
aF2
aF2
aF2
aF2
aF2
aF2
aF2
aF2
aF2
aF2
aF2
aF2
asg49
(lp66
F4
aF5
aF5
aF5
aF5
aF5
aF5
aF5
aF5
aF5
aF5
aF5
aF5
aF5
aF5
aF5
aF5
aF5
aF5
aF5
aF5
aF5
aF5
aF5
aF5
aF5
aF5
aF5
aF5
aF5
aF5
aF5
aF5
aF5
aF5
aF5
aF5
aF5
aF5
aF5
aF5
aF5
aF5
aF5
aF5
aF5
aF5
aF5
aF5
aF5
aF5
aF5
aF5
aF5
aF5
aF5
aF5
aF5
aF5
aF5
aF5
aF5
aF5
aF5
aF5
aF5
aF4
aF4
aF4
aF4
aF4
aF4
aF4
aF4
aF4
aF4
aF4
aF4
aF4
aF4
aF4
aF4
aF4
aF4
aF4
aF4
aF4
aF4
aF4
aF4
aF4
aF4
aF4
aF4
aF4
aF4
aF4
aF4
aF4
aF4
aF4
aF4
aF4
aF4
aF4
aF4
aF4
aF4
aF4
aF4
aF4
aF4
aF4
aF4
aF4
aF4
aF4
aF4
aF4
aF4
aF4
aF4
aF5
aF5
aF4
aF5
aF4
aF4
aF4
aF4
aF4
aF4
aF4
aF4
aF4
aF4
aF4
aF4
aF4
aF4
aF4
aF4
aF4
aF4
aF4
aF4
aF4
aF4
aF4
aF4
aF4
aF4
aF4
aF4
aF4
aF4
aF4
aF4
aF4
aF4
aF4
aF4
aF4
aF4
aF4
aF4
aF5
aF5
aF5
aF5
aF5
aF5
aF5
aF5
aF5
aF5
aF5
aF5
aF5
aF5
aF4
aF4
aF4
aF4
aF4
aF4
aF5
aF5
aF5
aF5
aF5
aF5
aF5
aF5
aF5
aF5
aF5
aF5
aF5
aF5
aF5
aF5
aF5
aF5
asg45
(lp67
F0.29953949590000001
aF0.038891955030000001
aF0.041038007350000003
aF0.31688486129999999
aF0.067139628450000002
aF0.078243056680000006
aF0.18532852990000001
aF0.071564140319999997
aF0.087434629690000001
aF0.1813331876
aF0.090832889459999996
aF0.13104436520000001
aF0.15759876219999999
aF0.10247304340000001
aF0.1456932729
aF0.19795581079999999
aF0.1370627807
aF0.2381472516
aF0.1637518603
aF0.1363344571
aF0.190758651
aF0.2252235011
aF0.1905508846
aF0.2615226947
aF0.15781866550000001
aF0.14563468339999999
aF0.17237375399999999
aF0.21277388080000001
aF0.19890292670000001
aF0.15938004780000001
aF0.13309972070000001
aF0.1275539228
aF0.13205142589999999
aF0.13687077340000001
aF0.12987178299999999
aF0.11677583969999999
aF0.10746595
aF0.1023409325
aF0.099668021940000004
aF0.097988777380000003
aF0.094972077119999998
aF0.090378510039999999
aF0.086411703719999997
aF0.083566074729999995
aF0.081676697249999999
aF0.080429997310000001
aF0.079069748910000001
aF0.078086740500000001
aF0.077222422260000007
aF0.075870151600000005
aF0.074627557489999996
aF0.073353686710000005
aF0.072024367810000003
aF0.070498031409999995
aF0.068780103120000005
aF0.067390852079999994
aF0.066290771910000004
aF0.065262841200000005
aF0.064045091609999993
aF0.062719519560000006
aF0.061497217850000001
aF0.06030648617
aF0.059217082040000001
aF0.058138517440000002
aF0.057197718949999997
aF0.056386706080000001
aF0.055519099650000001
aF0.054744876630000001
aF0.054164946229999997
aF0.053682907029999997
aF0.053031571659999999
aF0.052336279819999998
aF0.051696486389999997
aF0.051094964180000001
aF0.05046454895
aF0.049870362580000001
aF0.049076986099999997
aF0.048253182550000003
aF0.047617783150000002
aF0.047091844129999998
aF0.046586190729999997
aF0.045925947389999999
aF0.045165625030000003
aF0.044269693280000001
aF0.043187165530000002
aF0.042054879890000001
aF0.040804741460000002
aF0.039435932370000003
aF0.037988233560000001
aF0.036465451259999997
aF0.0347726467
aF0.033060484709999997
aF0.031389198450000003
aF0.029730555830000002
aF0.028155673369999999
aF0.026584293009999999
aF0.025038965600000001
aF0.023585378139999998
aF0.02211933541
aF0.020693860969999998
aF0.019391168550000001
aF0.01813379381
aF0.01685378559
aF0.015637769950000002
aF0.01446845532
aF0.01334670114
aF0.01237567931
aF0.011474265189999999
aF0.01070125108
aF0.010011529240000001
aF0.0093657542230000008
aF0.0087716291379999999
aF0.0082443991590000001
aF0.0077562060909999999
aF0.0072865219909999997
aF0.0068220660399999997
aF0.0063925164459999999
aF0.0060111131499999996
aF0.0056521108889999996
aF0.0053166464540000003
aF0.0050099551340000003
aF0.0047318815230000004
aF0.0044830877939999996
aF0.0042573635190000002
aF0.0040229513919999996
aF0.0038126287780000001
aF0.003617577389
aF0.0034440230810000002
aF0.003288749992
aF0.0031468670150000002
aF0.0030211751990000001
aF0.0028988325260000001
aF0.0027800195679999998
aF0.00265817273
aF0.0025344793709999999
aF0.0024138761569999999
aF0.0023018518399999998
aF0.0021954656129999999
aF0.0020905726590000001
aF0.0019894440159999999
aF0.0018952630680000001
aF0.0018062609639999999
aF0.00172225446
aF0.001643938575
aF0.001570170619
aF0.0015009443809999999
aF0.001439754247
aF0.0013910846519999999
aF0.001351866206
aF0.001320076241
aF0.001309298751
aF0.00131300187
aF0.001332555659
aF0.0013599569029999999
aF0.001389645672
aF0.001416980699
aF0.001441813857
aF0.0014656989860000001
aF0.001488816334
aF0.0015040973469999999
aF0.001513184728
aF0.0015163347949999999
aF0.0015112767759999999
aF0.0014960269350000001
aF0.0014693314520000001
aF0.0014318844150000001
aF0.001388976303
aF0.001342532222
aF0.001294605015
aF0.001242823472
aF0.0011916973670000001
aF0.001147087582
aF0.0011149569559999999
aF0.001094242064
aF0.001084511776
aF0.001088406904
aF0.001105010936
aF0.0011393578729999999
aF0.001183631566
aF0.001233808608
aF0.0012879083370000001
aF0.001341399171
aF0.001391511929
aF0.001437168796
aF0.0014815150369999999
aF0.0015208024869999999
aF0.0015502287939999999
aF0.0015710161089999999
aF0.0015804568650000001
aF0.0015777356829999999
aF0.0015658471749999999
aF0.0015411269149999999
aF0.001502368976
aF0.0014568315210000001
aF0.001402991642
aF0.0013478666949999999
aF0.0012919605200000001
aF0.0012345059679999999
aF0.001180409146
aF0.0011334413479999999
aF0.001103747654
aF0.0010895419
aF0.0010888342290000001
aF0.0010888342290000001
asg46
(lp68
F0.0025967098410000001
aF0.0003312576525
aF0.0003461836496
aF0.002454084781
aF0.000477944815
aF0.00073031645249999999
aF0.0014062429569999999
aF0.00048918626490000001
aF0.00082887262779999995
aF0.0016051028410000001
aF0.00087582653110000004
aF0.0012061995840000001
aF0.001287006219
aF0.00085859554230000002
aF0.0010236760470000001
aF0.0015441055179999999
aF0.0012830723300000001
aF0.0015802606699999999
aF0.0015031263180000001
aF0.0012949995079999999
aF0.0017334112010000001
aF0.001875180469
aF0.001712629487
aF0.0025830076090000002
aF0.0012490741769999999
aF0.0011603224420000001
aF0.0015666145840000001
aF0.001869378577
aF0.0019436707779999999
aF0.0014566666560000001
aF0.0011800678069999999
aF0.00088279360349999996
aF0.00099152320789999996
aF0.0013597483140000001
aF0.0012568825610000001
aF0.001048010273
aF0.00093266139790000005
aF0.00090770685310000002
aF0.00081351805329999999
aF0.00084463054720000002
aF0.00075647761519999997
aF0.00064493490380000001
aF0.00080893318240000001
aF0.00075062493619999998
aF0.00070083581440000004
aF0.00068733680830000005
aF0.00066069204280000003
aF0.00058422567710000005
aF0.00076607387880000004
aF0.00050492335530000004
aF0.00048945736030000001
aF0.00069719156000000004
aF0.00064900857800000004
aF0.00064532779599999997
aF0.00062117293660000005
aF0.00058482973039999996
aF0.00057608850740000004
aF0.00056570810929999998
aF0.00053289192679999999
aF0.00050568689630000002
aF0.00048571201269999997
aF0.0004511626793
aF0.00042294983879999999
aF0.00040599082739999998
aF0.00039045891759999999
aF0.00056151774890000005
aF0.00037032674569999999
aF0.00036066990000000002
aF0.00053641053730000003
aF0.00053548247869999999
aF0.00035086546270000001
aF0.00051761751070000003
aF0.00051516781230000002
aF0.00050920785860000004
aF0.00050209333389999999
aF0.00049413666409999998
aF0.00048189924299999999
aF0.00046835036880000001
aF0.0004554968916
aF0.00044585122069999998
aF0.00043756519079999999
aF0.00042739868290000001
aF0.0004166565835
aF0.00040830521429999997
aF0.00039665381820000001
aF0.00038323559439999998
aF0.00037086979020000001
aF0.00035915167119999998
aF0.00034778248170000002
aF0.00033446974069999998
aF0.00032158470889999998
aF0.00031105546300000002
aF0.00030177898430000001
aF0.00029556063489999997
aF0.0002040679857
aF0.00019337600100000001
aF0.00018493852120000001
aF0.00017844302039999999
aF0.00016865241849999999
aF0.00016166276039999999
aF0.0001539395044
aF0.0001441829669
aF0.00013293806260000001
aF0.00012317896459999999
aF0.00011659964330000001
aF0.00011163613020000001
aF0.0001056522113
aF9.8162976130000004e-05
aF9.1025472940000005e-05
aF8.4633933699999994e-05
aF7.9412109880000001e-05
aF7.4520955859999996e-05
aF6.9431408050000005e-05
aF6.3813678920000006e-05
aF5.8645644099999998e-05
aF5.375371312e-05
aF4.9416769099999998e-05
aF4.5647793090000003e-05
aF4.2580787279999997e-05
aF4.0201274289999998e-05
aF3.8199859550000002e-05
aF3.628441493e-05
aF3.4412023160000002e-05
aF3.2711252630000001e-05
aF3.1707540460000002e-05
aF3.1277020260000002e-05
aF3.1250980530000002e-05
aF3.108102625e-05
aF3.075085158e-05
aF3.0154988369999999e-05
aF2.9264967780000001e-05
aF2.795842839e-05
aF2.6426507410000001e-05
aF2.472097735e-05
aF2.3055005409999999e-05
aF2.179989236e-05
aF2.0778724160000001e-05
aF1.9717816059999999e-05
aF1.8573201500000001e-05
aF1.726902453e-05
aF1.6094746039999999e-05
aF1.5116912080000001e-05
aF1.450566896e-05
aF1.416466562e-05
aF1.3856672939999999e-05
aF1.386032435e-05
aF1.398792848e-05
aF1.0025521609999999e-05
aF1.008804753e-05
aF1.029053065e-05
aF1.0581849150000001e-05
aF1.0932717320000001e-05
aF1.125005236e-05
aF1.1477288240000001e-05
aF1.171748304e-05
aF1.1911505630000001e-05
aF1.198761543e-05
aF1.194953289e-05
aF1.186843954e-05
aF1.168481178e-05
aF1.136540849e-05
aF1.097982884e-05
aF1.0583883079999999e-05
aF1.48758019e-05
aF1.447348407e-05
aF1.407938521e-05
aF1.3570664940000001e-05
aF1.3037282059999999e-05
aF1.2675187430000001e-05
aF1.23629526e-05
aF8.5716204000000005e-06
aF8.2643178709999999e-06
aF8.2798585540000003e-06
aF8.6648926619999997e-06
aF9.3609076909999997e-06
aF1.010484228e-05
aF1.0685873609999999e-05
aF1.1102941180000001e-05
aF1.14210442e-05
aF1.1627408650000001e-05
aF1.178217563e-05
aF1.1889010440000001e-05
aF1.1996295829999999e-05
aF1.209895261e-05
aF1.217454241e-05
aF1.218395757e-05
aF1.207445037e-05
aF1.192644428e-05
aF1.175741626e-05
aF1.1609252230000001e-05
aF1.139617465e-05
aF1.107440629e-05
aF1.068667435e-05
aF1.0288792650000001e-05
aF9.8980242880000008e-06
aF1.334609794e-05
aF9.1913582960000001e-06
aF1.2103486660000001e-05
aF1.1794688789999999e-05
aF8.472258268e-06
aF8.6055119310000002e-06
aF9.1255102710000006e-06
aF9.8147765719999998e-06
aF9.8147765719999998e-06
asS'T'
(lp69
F1
aF0.26420192269999998
aF0.15483189680000001
aF0.098728962389999994
aF0.074367957210000002
aF0.060975459289999999
aF0.052292267089999997
aF0.045423911910000003
aF0.039709834229999998
aF0.035372971560000001
aF0.0322925965
aF0.02950884895
aF0.026984228070000001
aF0.024701921750000001
aF0.023164112470000001
aF0.02199730381
aF0.020846324919999999
aF0.01981616332
aF0.018859182780000001
aF0.017905938230000001
aF0.017094405220000001
aF0.016354470570000001
aF0.015652451760000002
aF0.015007622159999999
aF0.014407582590000001
aF0.013866531390000001
aF0.01337942282
aF0.01292394268
aF0.01250383456
aF0.012102296930000001
aF0.01174297516
aF0.01138370868
aF0.011061010140000001
aF0.010772510149999999
aF0.0104916742
aF0.01022380174
aF0.0099805547620000004
aF0.0097555363419999999
aF0.0095383366360000006
aF0.0093446281570000005
aF0.0091510156649999997
aF0.0089750459489999993
aF0.008800370444
aF0.0086426469189999997
aF0.0084796113619999992
aF0.0083343795400000007
aF0.0081903187409999995
aF0.0080499455689999992
aF0.0079258283500000005
aF0.0077967357130000001
aF0.0076959175969999998
aF0.0075767427479999996
aF0.0074781358210000001
aF0.0073816874840000003
aF0.0072846072939999999
aF0.0072022217350000001
aF0.0071037476290000002
aF0.0070332791360000002
aF0.006934023573
aF0.0068587102050000001
aF0.0067792915080000004
aF0.0067055345829999998
aF0.0066256738259999996
aF0.0065752643949999997
aF0.0064928013170000003
aF0.0064329697750000001
aF0.0063515429399999997
aF0.0062698832480000003
aF0.0061974172919999999
aF0.0061388255669999996
aF0.0060729767030000001
aF0.0060125520759999997
aF0.0059424515859999999
aF0.0058696533869999996
aF0.0058263364119999998
aF0.0057688881449999996
aF0.0057194747260000001
aF0.0056609521419999998
aF0.005604097045
aF0.0055656940120000003
aF0.005490777118
aF0.0054615226470000004
aF0.0053925114349999996
aF0.0053484597260000004
aF0.0052918408020000002
aF0.0052470640630000003
aF0.005207461874
aF0.0051752658700000001
aF0.0051272196960000004
aF0.0050849316300000001
aF0.0050496859989999998
aF0.0049981494969999997
aF0.0049526719109999999
aF0.0049220986499999998
aF0.0048863752679999999
aF0.0048510025539999996
aF0.0048126430559999999
aF0.0047618718189999997
aF0.00474187489
aF0.0047045098939999998
aF0.0046747055290000004
aF0.0046272137929999997
aF0.0045873467800000003
aF0.0045690785580000002
aF0.004519676484
aF0.0045075724379999996
aF0.0044661986489999998
aF0.0044394505670000001
aF0.0044048831989999997
aF0.0043793838699999997
aF0.0043336396420000003
aF0.0043094996310000001
aF0.0042837278440000003
aF0.0042583465120000002
aF0.0042304922700000004
aF0.0042016584339999996
aF0.0041669514100000004
aF0.0041451826410000003
aF0.0041121161349999998
aF0.0040968762009999998
aF0.0040597566780000002
aF0.0040394041349999998
aF0.0040010760910000002
aF0.0039877020490000003
aF0.0039542971360000002
aF0.0039421087220000003
aF0.0039076931159999998
aF0.0038927041520000001
aF0.0038635598779999999
aF0.0038453864360000001
aF0.0038200831130000001
aF0.0038034644670000002
aF0.0037684299629999998
aF0.0037532263719999999
aF0.0037225447739999999
aF0.0037128771540000001
aF0.0036844686069999999
aF0.003663189397
aF0.0036367935229999998
aF0.0036129638100000001
aF0.0035860346430000001
aF0.0035613871669999998
aF0.0035402441599999999
aF0.003516540824
aF0.0034861431609999999
aF0.0034674930119999998
aF0.0034372348220000001
aF0.0034074945400000001
aF0.0033739685550000001
aF0.00334520359
aF0.0033078196210000002
aF0.00327396506
aF0.003242112255
aF0.0032039295469999999
aF0.0031685704660000002
aF0.0031311786280000002
aF0.0030961183009999998
aF0.0030492198830000001
aF0.0030072445260000001
aF0.0029611744980000002
aF0.002921393761
aF0.0028744690120000001
aF0.0028294665470000001
aF0.0027716835020000002
aF0.002728164417
aF0.0026799726340000002
aF0.002637181029
aF0.002582411373
aF0.0025365314519999998
aF0.002487154882
aF0.0024424320830000001
aF0.0023831166429999998
aF0.0023367309939999999
aF0.0022859389350000001
aF0.002231022543
aF0.0021841439260000001
aF0.0021331812890000002
aF0.0020832538599999998
aF0.0020312695859999999
aF0.0019797957910000002
aF0.001925994029
aF0.0018678332199999999
aF0.001818642788
aF0.0017647453820000001
aF0.0017151465990000001
aF0.001657173007
aF0.001609301011
aF0.001553597627
aF0.001501394133
aF0.0014456073469999999
aF0.0013947050390000001
aF0.0013378110059999999
aF0.001288759653
aF0.001236043288
aF0.001185954949
aF0.001134664121
aF0.0010841429879999999
aF0.0010337184819999999
aF0.00098960106950000005
aF0.00094176794149999996
aF0.00089420553950000003
aF0.00084502175699999996
aF0.00080472532850000005
aF0.00080472532850000005
asg47
(lp70
F3
aF4
aF4
aF4
aF4
aF4
aF4
aF4
aF4
aF4
aF4
aF4
aF4
aF4
aF4
aF4
aF4
aF4
aF4
aF4
aF4
aF4
aF4
aF4
aF4
aF4
aF4
aF4
aF4
aF4
aF4
aF4
aF4
aF4
aF4
aF4
aF4
aF4
aF4
aF4
aF4
aF4
aF4
aF4
aF4
aF4
aF4
aF4
aF4
aF4
aF4
aF4
aF4
aF4
aF4
aF4
aF4
aF4
aF4
aF4
aF4
aF4
aF4
aF4
aF4
aF4
aF4
aF4
aF4
aF4
aF4
aF4
aF4
aF4
aF4
aF4
aF4
aF4
aF4
aF4
aF4
aF4
aF4
aF4
aF4
aF4
aF4
aF4
aF4
aF4
aF4
aF4
aF4
aF4
aF4
aF4
aF4
aF4
aF4
aF4
aF4
aF4
aF4
aF4
aF4
aF4
aF4
aF4
aF4
aF4
aF4
aF4
aF4
aF4
aF4
aF4
aF4
aF4
aF4
aF4
aF4
aF4
aF4
aF4
aF4
aF4
aF4
aF4
aF4
aF4
aF4
aF4
aF4
aF4
aF4
aF4
aF4
aF4
aF4
aF4
aF4
aF4
aF4
aF4
aF4
aF4
aF4
aF4
aF4
aF4
aF4
aF4
aF4
aF4
aF4
aF4
aF4
aF4
aF4
aF4
aF4
aF4
aF4
aF4
aF4
aF4
aF4
aF4
aF4
aF4
aF4
aF4
aF4
aF4
aF4
aF4
aF4
aF4
aF4
aF4
aF4
aF4
aF4
aF4
aF4
aF4
aF4
aF4
aF4
aF4
aF4
aF4
aF4
aF4
aF4
aF4
aF4
aF4
aF4
aF4
aF4
aF4
aF4
aF4
asg42
(lp71
F0.0056144211330000004
aF0.0023008923130000002
aF0.001692194199
aF0.0012552222039999999
aF0.00096204475139999995
aF0.00075073347859999997
aF0.0006247231276
aF0.00050570973890000002
aF0.00041472018470000002
aF0.00035343184450000001
aF0.00029599244950000001
aF0.00025158078089999999
aF0.000215775666
aF0.00018334301419999999
aF0.00016031631609999999
aF0.0001436579349
aF0.000127222806
aF0.00011286511650000001
aF0.0001010342786
aF9.1350863370000002e-05
aF8.3653447650000002e-05
aF7.7058123189999996e-05
aF7.110461471e-05
aF6.5863608300000001e-05
aF6.1582774599999994e-05
aF5.8176503820000002e-05
aF5.5516871109999999e-05
aF5.3305156520000003e-05
aF5.1312500280000002e-05
aF4.9530070090000002e-05
aF4.8070559610000001e-05
aF4.6904592699999997e-05
aF4.5892592249999999e-05
aF4.4872803089999998e-05
aF4.3764795969999998e-05
aF4.2729214150000003e-05
aF4.1651443040000003e-05
aF4.0435704510000002e-05
aF3.9018782520000002e-05
aF3.74482702e-05
aF3.5868406709999998e-05
aF3.434481102e-05
aF3.2821496890000001e-05
aF3.1285972579999998e-05
aF2.9843145040000001e-05
aF2.8479552409999999e-05
aF4.8871128270000002e-05
aF4.7629620259999999e-05
aF4.6356284569999998e-05
aF4.5111804720000003e-05
aF4.3809099500000002e-05
aF4.2634893199999998e-05
aF4.1586878370000003e-05
aF4.0693161249999998e-05
aF3.994835356e-05
aF3.937295951e-05
aF3.8944775880000003e-05
aF3.8575154489999999e-05
aF3.8231326549999999e-05
aF3.7844029310000003e-05
aF3.7414761770000003e-05
aF3.6912497280000003e-05
aF3.6289204959999999e-05
aF3.5588330440000001e-05
aF3.4808277769999997e-05
aF3.3962996210000002e-05
aF3.3073092560000002e-05
aF3.2146964639999999e-05
aF3.1225077549999998e-05
aF3.0302155649999998e-05
aF2.9446949939999999e-05
aF2.868866709e-05
aF2.800787392e-05
aF2.7382352049999998e-05
aF2.6829154169999998e-05
aF2.6363648570000001e-05
aF2.5976416319999999e-05
aF2.5627213439999999e-05
aF2.5296537159999999e-05
aF2.4973284069999999e-05
aF2.4630819639999999e-05
aF2.4239794820000001e-05
aF2.3776517729999999e-05
aF2.3234020799999999e-05
aF2.2609451459999999e-05
aF2.1913120130000001e-05
aF2.1147121740000001e-05
aF2.031433842e-05
aF1.9434958780000001e-05
aF1.852243384e-05
aF1.7586732619999999e-05
aF1.6640236799999998e-05
aF1.568815446e-05
aF1.474614736e-05
aF1.381921729e-05
aF1.291977449e-05
aF1.205726392e-05
aF1.122824402e-05
aF1.0428357269999999e-05
aF9.6647145809999994e-06
aF8.9353424239999995e-06
aF8.238791627e-06
aF7.5853896019999996e-06
aF6.9779186050000002e-06
aF6.4106567650000001e-06
aF5.8913453550000001e-06
aF5.421543636e-06
aF5.0061538609999998e-06
aF4.6407689969999998e-06
aF4.3197520989999997e-06
aF4.0371789489999998e-06
aF3.7895624269999999e-06
aF3.5737680499999999e-06
aF3.3832150420000002e-06
aF3.2125917060000001e-06
aF3.0522552660000001e-06
aF2.898398547e-06
aF2.7500707779999998e-06
aF2.6085868379999998e-06
aF2.4737409640000001e-06
aF2.3449594649999998e-06
aF2.2225838399999999e-06
aF2.1080528429999999e-06
aF1.9984841219999998e-06
aF1.892223044e-06
aF1.7912469689999999e-06
aF1.692724598e-06
aF1.5981948629999999e-06
aF1.5074643410000001e-06
aF1.420697602e-06
aF1.338583405e-06
aF1.2608091100000001e-06
aF1.186479688e-06
aF1.115475558e-06
aF1.047456602e-06
aF9.8269778020000007e-07
aF9.2139130860000002e-07
aF8.6379306840000003e-07
aF8.0954075680000004e-07
aF7.5868332730000002e-07
aF7.1121906029999998e-07
aF6.6701658380000001e-07
aF6.2692019920000003e-07
aF5.9255818399999998e-07
aF5.6385939469999999e-07
aF5.4016360640000003e-07
aF9.8695662690000007e-07
aF9.912945863e-07
aF9.9190994469999994e-07
aF9.9142840219999999e-07
aF9.9093585070000003e-07
aF9.893287337999999e-07
aF9.859069526e-07
aF9.8116450460000004e-07
aF9.7297895859999997e-07
aF9.6329350220000003e-07
aF9.5150871599999998e-07
aF9.3838940450000004e-07
aF9.2570826430000001e-07
aF9.1101276739999996e-07
aF8.9413574479999997e-07
aF8.7567498240000001e-07
aF8.5579687530000003e-07
aF8.3396232050000004e-07
aF8.1033136289999998e-07
aF7.8492887689999996e-07
aF7.6024521699999996e-07
aF7.3713935070000001e-07
aF7.1820643330000001e-07
aF7.0409076879999999e-07
aF6.9639902860000001e-07
aF6.9345096490000004e-07
aF6.9398713520000001e-07
aF6.9792374310000004e-07
aF7.0440070360000001e-07
aF7.1305950129999996e-07
aF7.2203878449999996e-07
aF7.3266124800000002e-07
aF7.4439100909999999e-07
aF7.5598779249999997e-07
aF7.6690314849999995e-07
aF7.7626122970000005e-07
aF7.8398229450000002e-07
aF7.9007700699999999e-07
aF7.9372185190000002e-07
aF7.9501982379999999e-07
aF7.9441503920000004e-07
aF7.9090721179999999e-07
aF7.8476913040000001e-07
aF7.7562981960000002e-07
aF7.6370396680000004e-07
aF7.4891822490000001e-07
aF7.3218728479999995e-07
aF7.1462237159999997e-07
aF6.9684857199999995e-07
aF6.817092121e-07
aF6.7251528509999995e-07
aF6.695615641e-07
aF6.7067042799999997e-07
aF6.7492698340000002e-07
aF6.8094765280000004e-07
aF6.8884910409999998e-07
aF6.9818683789999998e-07
aF6.9818683789999998e-07
asg52
(lp72
F0.0078464304759999996
aF0.033052924339999998
aF0.017794945459999999
aF0.0020425620730000001
aF0.01694293325
aF0.014433893289999999
aF0.003425278186
aF0.0097461229579999999
aF0.0053101542950000002
aF0.0021645594409999999
aF0.005555922449
aF0.003051448538
aF0.0018222237290000001
aF0.002889218726
aF0.0012997877270000001
aF0.0011729262840000001
aF0.0017087844390000001
aF0.00083980435899999996
aF0.0008829660172
aF0.0010113213880000001
aF0.00061676371449999995
aF0.00068368956600000003
aF0.00071852249900000004
aF0.00055535365689999997
aF0.00060289280269999995
aF0.00060189329739999996
aF0.00054590698339999997
aF0.00055247534209999999
aF0.00054988324590000005
aF0.00054364124910000005
aF0.00055791457600000004
aF0.00055671604319999996
aF0.00054569278660000005
aF0.00053873045319999995
aF0.00053116374850000001
aF0.00052635422150000002
aF0.00052303569620000003
aF0.00051446844299999999
aF0.00050062369169999997
aF0.00048491263890000001
aF0.00047091662710000001
aF0.0004609408175
aF0.00044998411880000001
aF0.00043602932899999998
aF0.00041845014099999999
aF0.00039982911010000001
aF0.00038166266080000001
aF0.00036513265279999998
aF0.0003492543469
aF0.00033471895209999999
aF0.00054976304179999997
aF0.00053056202860000002
aF0.00051273251969999995
aF0.00049594282400000004
aF0.00047927123759999998
aF0.00046267027839999998
aF0.00044657340330000003
aF0.00043090633929999999
aF0.00041578579219999999
aF0.00040108016379999999
aF0.0003865589093
aF0.00037280400340000003
aF0.00036051417529999998
aF0.0003495879559
aF0.00033989119970000001
aF0.00033211435989999999
aF0.00032573995779999998
aF0.00031972661430000002
aF0.00031372387320000001
aF0.0003077921477
aF0.00030172907709999998
aF0.0002957489938
aF0.00028948937409999998
aF0.000283503895
aF0.00027773844510000002
aF0.00027177705679999999
aF0.000266273183
aF0.00026072996300000002
aF0.00025480768889999999
aF0.00024858984250000001
aF0.0002419142726
aF0.00023472984439999999
aF0.0002269869686
aF0.00021857695469999999
aF0.00020956487140000001
aF0.0002000731507
aF0.00019023523899999999
aF0.00018006627369999999
aF0.0001698513807
aF0.0001597250255
aF0.00014989279270000001
aF0.00014044169010000001
aF0.00013154147219999999
aF0.00012315790300000001
aF0.000115182206
aF0.0001075963854
aF0.00010037127640000001
aF9.3491586519999997e-05
aF8.6947933909999999e-05
aF8.0768761569999998e-05
aF7.4861991549999998e-05
aF6.9353207310000002e-05
aF6.4203489979999996e-05
aF5.9427510450000003e-05
aF5.5033647880000001e-05
aF5.097863976e-05
aF4.715820279e-05
aF4.3601001579999997e-05
aF4.0286611390000002e-05
aF3.7220437020000001e-05
aF3.4384568360000002e-05
aF3.1769824749999998e-05
aF2.9365908390000001e-05
aF2.7181684499999999e-05
aF2.5196823240000001e-05
aF2.3407516389999999e-05
aF2.1811914569999999e-05
aF2.037112521e-05
aF1.905675173e-05
aF1.787040255e-05
aF1.6802596880000001e-05
aF1.5853576400000001e-05
aF1.499300582e-05
aF1.4197014420000001e-05
aF1.343916582e-05
aF1.271111626e-05
aF1.203223423e-05
aF1.137317779e-05
aF1.076295041e-05
aF1.020900452e-05
aF9.7071563179999993e-06
aF9.2426025220000007e-06
aF8.8123155069999999e-06
aF8.4093778739999995e-06
aF8.0201627169999992e-06
aF7.6441048169999994e-06
aF7.2691762759999997e-06
aF6.9025387769999999e-06
aF6.5373674650000003e-06
aF6.1783938840000003e-06
aF5.8284233169999997e-06
aF5.4964103599999999e-06
aF5.1876434170000004e-06
aF4.9095526050000003e-06
aF4.6596926839999998e-06
aF4.432853933e-06
aF4.233524493e-06
aF4.0653277679999998e-06
aF3.9185696439999996e-06
aF3.7858462979999998e-06
aF3.6704535109999999e-06
aF3.580467911e-06
aF3.507845247e-06
aF3.463216155e-06
aF3.440042455e-06
aF3.4326787690000001e-06
aF3.438231196e-06
aF3.457366481e-06
aF2.063558233e-06
aF2.070811122e-06
aF2.0738130370000001e-06
aF2.07029693e-06
aF2.0625396130000002e-06
aF2.044889369e-06
aF2.0152051429999999e-06
aF1.9712910099999999e-06
aF1.9164634759999998e-06
aF1.8523878859999999e-06
aF1.7857212730000001e-06
aF1.7236674720000001e-06
aF1.6665736689999999e-06
aF1.614776391e-06
aF1.5673267429999999e-06
aF1.523925884e-06
aF1.4909273750000001e-06
aF1.466290244e-06
aF1.449764124e-06
aF1.4470518400000001e-06
aF1.4645329839999999e-06
aF1.497688793e-06
aF1.5430283279999999e-06
aF1.599140279e-06
aF1.6641319820000001e-06
aF1.732907888e-06
aF1.802774947e-06
aF1.867732932e-06
aF1.9249240130000002e-06
aF1.972045121e-06
aF2.0053908169999999e-06
aF2.0226678279999999e-06
aF2.0225121690000001e-06
aF2.006057928e-06
aF1.972993286e-06
aF1.9252379860000002e-06
aF1.8633798029999999e-06
aF1.79539958e-06
aF1.7324302530000001e-06
aF1.672930171e-06
aF1.614805608e-06
aF1.5572271289999999e-06
aF1.5052981810000001e-06
aF1.4661276610000001e-06
aF1.434093103e-06
aF1.434093103e-06
asg50
(lp73
F0.080980004580000001
aF0.043619603780000002
aF0.025282146580000001
aF0.019672737079999999
aF0.01449285013
aF0.01232859815
aF0.0085188937520000001
aF0.0063866197089999998
aF0.0062559155669999998
aF0.0058228315950000003
aF0.0047224241319999997
aF0.004090407943
aF0.0029236690009999998
aF0.0024298143310000002
aF0.0023647658029999998
aF0.0020635082750000001
aF0.0018134393110000001
aF0.0015794587139999999
aF0.001256146133
aF0.0011938035149999999
aF0.00116404052
aF0.0010402199010000001
aF0.00094945153679999999
aF0.00085207047720000002
aF0.00077572516309999998
aF0.00076418750199999999
aF0.00074833572960000003
aF0.00071211325799999995
aF0.00068276073640000004
aF0.00064854633740000004
aF0.00062705674300000003
aF0.00061959338059999996
aF0.00061295094779999996
aF0.00060067177610000002
aF0.0005837241163
aF0.0005666419171
aF0.00055840400570000002
aF0.00055317433009999999
aF0.00054877023459999998
aF0.00054174357230000005
aF0.00053139354630000004
aF0.00052161476249999999
aF0.00051548948420000002
aF0.0005099621153
aF0.0005041888176
aF0.00049723555100000003
aF0.00048956512500000001
aF0.00048791537299999998
aF0.00048600924500000003
aF0.0004837868724
aF0.00047798869549999998
aF0.00047223176609999999
aF0.00046726568170000002
aF0.0004625185569
aF0.00045786733910000002
aF0.00045312286399999999
aF0.0004480327296
aF0.00044277187950000002
aF0.0004375738762
aF0.0004323296626
aF0.0004267555293
aF0.00042089165950000003
aF0.00041447047620000001
aF0.0004072276781
aF0.0003991440414
aF0.00039045798359999998
aF0.0003812557769
aF0.00037159476850000001
aF0.00036192838540000002
aF0.00035226220390000002
aF0.00034303181159999998
aF0.00033408500940000001
aF0.0003255274737
aF0.00031725757820000002
aF0.00030942571689999998
aF0.00030200376640000001
aF0.00029517808349999999
aF0.000288905
aF0.0002833003967
aF0.0002780601824
aF0.00027281424130000002
aF0.00026744320339999999
aF0.00026172223750000001
aF0.00025540434970000001
aF0.00024857113579999999
aF0.00024124273239999999
aF0.0002333053686
aF0.0002248564485
aF0.00021597819720000001
aF0.0002066810127
aF0.000197058016
aF0.00018720725820000001
aF0.0001773025813
aF0.00016750304980000001
aF0.0001578874578
aF0.00014847769280000001
aF0.00013960223499999999
aF0.00013111953279999999
aF0.00012285844560000001
aF0.0001149516028
aF0.0001074411497
aF0.0001003078701
aF9.3427181910000001e-05
aF8.6815362909999999e-05
aF8.0663131310000006e-05
aF7.5004289959999996e-05
aF6.9748292249999995e-05
aF6.4870525919999994e-05
aF6.0414137360000003e-05
aF5.6369612449999998e-05
aF5.2674656640000001e-05
aF4.9291795000000001e-05
aF4.6213721099999997e-05
aF4.3433968259999999e-05
aF4.089540645e-05
aF3.85704969e-05
aF3.6422203689999998e-05
aF3.4425093540000002e-05
aF3.2564274569999998e-05
aF3.084462447e-05
aF2.9217010179999999e-05
aF2.7692877089999999e-05
aF2.6254806210000001e-05
aF2.4901319510000001e-05
aF2.3619211229999999e-05
aF2.239027786e-05
aF2.1215436359999999e-05
aF2.0085751060000002e-05
aF1.9005558319999999e-05
aF1.7976186000000001e-05
aF1.6977644779999998e-05
aF1.6009578110000001e-05
aF1.507332126e-05
aF1.4192758859999999e-05
aF1.329719799e-05
aF1.246281564e-05
aF1.166253458e-05
aF1.0904428440000001e-05
aF1.0192335920000001e-05
aF9.5305244249999996e-06
aF8.9207832240000003e-06
aF8.3679464919999996e-06
aF7.8747565850000008e-06
aF7.4525231360000003e-06
aF7.0976670660000004e-06
aF6.804739255e-06
aF6.5557569880000002e-06
aF6.4832011050000001e-06
aF6.4031913190000003e-06
aF6.3254646930000004e-06
aF6.2577170329999997e-06
aF6.1903659659999996e-06
aF6.1205778110000004e-06
aF6.0489197499999997e-06
aF5.9695559500000001e-06
aF5.883405739e-06
aF5.7950851799999998e-06
aF5.7010382739999998e-06
aF5.6111781959999998e-06
aF5.507553097e-06
aF5.3934633979999997e-06
aF5.2648524000000003e-06
aF5.1235725790000001e-06
aF4.9784873599999997e-06
aF4.8100189240000001e-06
aF4.6421439870000004e-06
aF4.4774471960000002e-06
aF4.3268735370000001e-06
aF4.2042402180000003e-06
aF4.1198132239999996e-06
aF4.074729434e-06
aF4.0774844499999996e-06
aF4.1166591530000003e-06
aF4.1768974050000004e-06
aF4.2562409949999997e-06
aF4.3443322930000002e-06
aF4.4334718039999998e-06
aF4.5187799340000001e-06
aF4.6097199369999999e-06
aF4.6942248729999998e-06
aF4.7655099989999999e-06
aF4.8152302059999997e-06
aF4.8529947780000003e-06
aF4.8793028649999997e-06
aF4.8845717320000002e-06
aF4.873292205e-06
aF4.845279601e-06
aF4.8068967770000002e-06
aF4.7537009900000003e-06
aF4.6810601650000002e-06
aF4.5842831159999996e-06
aF4.4728278899999999e-06
aF4.3486765580000003e-06
aF4.2240162140000003e-06
aF4.107741983e-06
aF4.0108999350000003e-06
aF3.9453076010000001e-06
aF3.9359494970000002e-06
aF3.9600122269999998e-06
aF4.0153367370000001e-06
aF4.0885709720000003e-06
aF4.1742058570000002e-06
aF4.2737018969999998e-06
aF4.2737018969999998e-06
asg44
(lp74
F0.048746114659999999
aF0.011910757690000001
aF0.0082953553239999995
aF0.0057119151349999996
aF0.0043155591340000004
aF0.003780977324
aF0.0035661190399999998
aF0.003179322994
aF0.0027981376779999999
aF0.0025101470440000002
aF0.0023250865160000002
aF0.0021229987919999999
aF0.0019556356459999999
aF0.001793990559
aF0.0016736050660000001
aF0.001609751711
aF0.001583010318
aF0.0015185047179999999
aF0.0014412865529999999
aF0.0013688084529999999
aF0.0013230220090000001
aF0.001258687069
aF0.001213272985
aF0.001166970562
aF0.001123879485
aF0.0011035765770000001
aF0.001091000698
aF0.001031230808
aF0.00099042038770000003
aF0.00095431519310000003
aF0.00092377927480000004
aF0.00089222653150000002
aF0.0008581745541
aF0.00082794617669999999
aF0.00080041662099999999
aF0.00077392117220000003
aF0.00074864341659999995
aF0.00072655669830000002
aF0.00070124860169999996
aF0.00068150457699999996
aF0.00065271769789999998
aF0.00063803910370000005
aF0.00061305228610000003
aF0.00059736723700000004
aF0.00057839047899999995
aF0.00056990854719999999
aF0.00055286853990000001
aF0.00054047480829999995
aF0.00052826973110000003
aF0.00051259986659999996
aF0.00050268979679999996
aF0.00049197564219999996
aF0.0004797560499
aF0.00046738263900000001
aF0.00045410792500000003
aF0.00044539145970000002
aF0.0004345632573
aF0.00042849687029999998
aF0.00041969411359999998
aF0.00041251399180000002
aF0.00040739865370000001
aF0.00041382770920000002
aF0.00040095657190000001
aF0.00040452588110000002
aF0.00039680226059999999
aF0.00039474707039999999
aF0.00039107109629999998
aF0.00038479109640000001
aF0.00038432670540000001
aF0.00038216472110000002
aF0.0003825379466
aF0.00037468736909999998
aF0.00037658463450000002
aF0.00037190026659999998
aF0.00036920582679999999
aF0.00036443339270000001
aF0.00036595407940000002
aF0.0003602601922
aF0.0003584021
aF0.00035547145129999997
aF0.00035403894879999998
aF0.0003508520357
aF0.00034832533090000002
aF0.00034528958249999998
aF0.00034124964429999997
aF0.00033794471329999997
aF0.0003360127134
aF0.00033428370409999998
aF0.00033359095489999998
aF0.00033208365560000001
aF0.0003314638849
aF0.00032815349999999998
aF0.0003246053542
aF0.00032621460780000002
aF0.00032221308109999999
aF0.0003218913993
aF0.0003211946803
aF0.00031849841730000001
aF0.0003176109734
aF0.00031510325269999999
aF0.00031434894339999999
aF0.00031142811300000002
aF0.00030898211449999999
aF0.00030949661509999999
aF0.00030579698500000002
aF0.00030563502049999998
aF0.0003046956562
aF0.0003014306971
aF0.00029950655740000002
aF0.00029771943250000001
aF0.00029375876899999999
aF0.00029315009020000003
aF0.00029093627229999998
aF0.00029272602660000002
aF0.0002896287951
aF0.00029090889410000002
aF0.00028727693070000002
aF0.00028913870109999998
aF0.00028842802329999997
aF0.00029053251680000001
aF0.000287600285
aF0.00029065931289999999
aF0.000285529236
aF0.0002903641833
aF0.00028498628329999998
aF0.00028717683500000001
aF0.00028489140110000001
aF0.00028644161829999998
aF0.00028486755659999999
aF0.00028579830019999998
aF0.0002824272704
aF0.00028379107389999998
aF0.00028176057389999999
aF0.00027944739590000001
aF0.00028005412509999998
aF0.00027929777779999999
aF0.00027783308100000001
aF0.0002755606144
aF0.0002749577629
aF0.00027301540760000002
aF0.00027382091130000001
aF0.00027242646210000001
aF0.00026790493110000001
aF0.00026838312570000002
aF0.0002665856459
aF0.00026137823600000002
aF0.00026013903310000001
aF0.00026197136309999999
aF0.00025367621000000002
aF0.00025335274719999999
aF0.00025134843619999998
aF0.00024988854850000001
aF0.00024538712300000001
aF0.00024852498939999999
aF0.00024026342610000001
aF0.0002386223682
aF0.0002348076534
aF0.00023563633649999999
aF0.00022977815889999999
aF0.00022654961200000001
aF0.0002270695999
aF0.0002173413543
aF0.00022204285669999999
aF0.0002127591219
aF0.00021063345470000001
aF0.0002083201044
aF0.00020390956200000001
aF0.0001992602567
aF0.0001994261896
aF0.00019523784109999999
aF0.00019031739240000001
aF0.0001837170363
aF0.00018490920250000001
aF0.00018026981270000001
aF0.00017215703390000001
aF0.00017078937879999999
aF0.00016715057680000001
aF0.00016196315209999999
aF0.00015821692759999999
aF0.0001527712654
aF0.0001528311236
aF0.0001434528951
aF0.0001393130553
aF0.00013693579960000001
aF0.00013051904449999999
aF0.00012743981640000001
aF0.00012229407450000001
aF0.0001188052542
aF0.00011383848749999999
aF0.0001102940927
aF0.0001050836446
aF0.0001007973813
aF9.7739199199999995e-05
aF9.2958411669999996e-05
aF8.8750735370000003e-05
aF8.561445282e-05
aF8.3553902009999995e-05
aF7.6835744300000002e-05
aF7.5424742179999995e-05
aF7.1856338689999994e-05
aF6.8116652859999998e-05
aF6.4871907699999998e-05
aF6.1856306969999996e-05
aF6.1856306969999996e-05
asg51
(lp75
F0.073317445940000003
aF0.039285473899999999
aF0.031795588309999998
aF0.025556104480000001
aF0.022626061360000001
aF0.019265120569999999
aF0.016137650480000001
aF0.013551612419999999
aF0.01158890949
aF0.01003305965
aF0.0085252398440000005
aF0.0071886049389999996
aF0.0061126725610000003
aF0.0052559001529999998
aF0.0046792343460000003
aF0.0042781511500000003
aF0.0039019733960000001
aF0.0035956683249999998
aF0.003359693089
aF0.0031687475649999999
aF0.0030109565709999998
aF0.0028949776280000001
aF0.0028218388840000001
aF0.002778907155
aF0.0027494758160000001
aF0.002734657138
aF0.0027368193919999999
aF0.0027596353319999998
aF0.0027918385240000001
aF0.002832790211
aF0.0028780517809999999
aF0.0029303146229999999
aF0.0029834150649999999
aF0.0030377124839999999
aF0.0030845469209999999
aF0.0031147899549999998
aF0.003142437141
aF0.00315689213
aF0.003154380336
aF0.003122748395
aF0.0030563850409999998
aF0.0029736811979999998
aF0.0028590921729999999
aF0.0027228840940000001
aF0.0025741125100000001
aF0.002427901783
aF0.0022860506889999998
aF0.0021391472280000001
aF0.0020016790859999998
aF0.001873264033
aF0.001751053826
aF0.0016338489050000001
aF0.001522325266
aF0.001420268965
aF0.0013292537610000001
aF0.001248585486
aF0.0011808448190000001
aF0.001122394244
aF0.0010724857370000001
aF0.001025570909
aF0.00098013451130000008
aF0.00093696867370000002
aF0.00089498407059999995
aF0.00085400731330000004
aF0.00081419053850000003
aF0.00077697980560000003
aF0.00074404243240000002
aF0.0007163592846
aF0.00069205020820000004
aF0.00066984979069999997
aF0.00064746124330000005
aF0.00062546650869999996
aF0.00060317698860000001
aF0.00058143034090000004
aF0.00056146012730000003
aF0.00054321990930000005
aF0.00052867692420000001
aF0.00051868347149999999
aF0.00051350830479999999
aF0.00051073689829999995
aF0.00050959627779999998
aF0.00050795241420000003
aF0.0005054236901
aF0.00050180286100000001
aF0.00049673814469999996
aF0.00049076084949999999
aF0.00048386821399999999
aF0.00047600053069999997
aF0.00046752838550000002
aF0.0004583000502
aF0.00044815178390000002
aF0.00043623412470000003
aF0.00042289904860000002
aF0.00040857040560000001
aF0.00039332557809999998
aF0.00037675773700000001
aF0.00035913845110000002
aF0.00034093322020000002
aF0.00032188550000000001
aF0.00030272855329999999
aF0.000283466208
aF0.00026421184400000002
aF0.00024539794319999999
aF0.00022750700899999999
aF0.00021073593540000001
aF0.00019498417329999999
aF0.00018038814070000001
aF0.00016695024819999999
aF0.0001545038143
aF0.00014316613929999999
aF0.0001328945086
aF0.00012355912389999999
aF0.0001150791415
aF0.000107353493
aF0.0001003610367
aF9.3986151079999996e-05
aF8.81575041e-05
aF8.2835644540000001e-05
aF7.7984515240000002e-05
aF7.362755771e-05
aF6.9672829229999993e-05
aF6.603618628e-05
aF6.268128275e-05
aF5.9500254629999997e-05
aF5.6453847910000001e-05
aF5.35454033e-05
aF5.0702744079999997e-05
aF4.7978450549999999e-05
aF4.5361041890000002e-05
aF4.2842960700000001e-05
aF4.046525332e-05
aF3.8232987449999998e-05
aF3.6139681540000001e-05
aF3.417774186e-05
aF3.2335337409999999e-05
aF3.0603393709999998e-05
aF2.895720835e-05
aF2.738637678e-05
aF2.5884338639999998e-05
aF2.447296509e-05
aF2.3135405260000001e-05
aF2.1877569899999998e-05
aF2.0679321699999999e-05
aF1.9567613669999999e-05
aF1.856340055e-05
aF1.7666034320000001e-05
aF1.694160005e-05
aF1.630052263e-05
aF1.568889297e-05
aF1.5122472889999999e-05
aF1.45853793e-05
aF1.408755231e-05
aF1.3618937839999999e-05
aF1.317894655e-05
aF1.2743689679999999e-05
aF1.2334442930000001e-05
aF1.196557641e-05
aF1.163412571e-05
aF1.13700853e-05
aF1.112716083e-05
aF1.0921736099999999e-05
aF1.0748908820000001e-05
aF1.0578484719999999e-05
aF1.040305794e-05
aF1.020910571e-05
aF1.0006735020000001e-05
aF9.8015614090000004e-06
aF9.5699972719999993e-06
aF9.3185854820000005e-06
aF9.0845654569999998e-06
aF8.8902763209999994e-06
aF8.716244058e-06
aF8.5894373869999997e-06
aF8.4845139359999996e-06
aF8.4104245580000003e-06
aF8.3874313500000008e-06
aF8.4042512520000008e-06
aF8.4311307140000007e-06
aF8.4670387189999999e-06
aF8.4999948089999992e-06
aF8.5271376419999992e-06
aF8.5608826719999995e-06
aF8.5958370909999999e-06
aF8.6353790720000007e-06
aF8.6735230630000004e-06
aF8.7030017750000006e-06
aF8.7293929360000004e-06
aF8.7562076020000004e-06
aF8.7946353090000005e-06
aF8.8541986149999996e-06
aF8.9318736000000008e-06
aF9.0051405929999997e-06
aF9.0488417169999993e-06
aF9.0386104510000001e-06
aF8.9847154249999992e-06
aF8.8934912370000008e-06
aF8.7734020440000008e-06
aF8.6486332219999993e-06
aF8.5445463089999994e-06
aF8.4225550270000001e-06
aF8.3005496099999997e-06
aF8.1958285900000001e-06
aF8.1115319870000003e-06
aF8.1115319870000003e-06
assg12
(lp76
sg14
(lp77
F2
aF3
aF4
aF5
aF6
aF7
aF8
aF9
aF10
aF11
aF12
aF13
aF14
aF15
aF16
aF17
aF18
aF19
aF20
aF21
aF22
aF23
aF24
aF25
aF26
aF27
aF28
aF29
aF30
aF31
aF32
aF33
aF34
aF35
aF36
aF37
aF38
aF39
aF40
aF41
aF42
aF43
aF44
aF45
aF46
aF47
aF48
aF49
aF50
aF51
aF52
aF53
aF54
aF55
aF56
aF57
aF58
aF59
aF60
aF61
aF62
aF63
aF64
aF65
aF66
aF67
aF68
aF69
aF70
aF71
aF72
aF73
aF74
aF75
aF76
aF77
aF78
aF79
aF80
aF81
aF82
aF83
aF84
aF85
aF86
aF87
aF88
aF89
aF90
aF91
aF92
aF93
aF94
aF95
aF96
aF97
aF98
aF99
aF100
aF101
aF102
aF103
aF104
aF105
aF106
aF107
aF108
aF109
aF110
aF111
aF112
aF113
aF114
aF115
aF116
aF117
aF118
aF119
aF120
aF121
aF122
aF123
aF124
aF125
aF126
aF127
aF128
aF129
aF130
aF131
aF132
aF133
aF134
aF135
aF136
aF137
aF138
aF139
aF140
aF141
aF142
aF143
aF144
aF145
aF146
aF147
aF148
aF149
aF150
aF151
aF152
aF153
aF154
aF155
aF156
aF157
aF158
aF159
aF160
aF161
aF162
aF163
aF164
aF165
aF166
aF167
aF168
aF169
aF170
aF171
aF172
aF173
aF174
aF175
aF176
aF177
aF178
aF179
aF180
aF181
aF182
aF183
aF184
aF185
aF186
aF187
aF188
aF189
aF190
aF191
aF192
aF193
aF194
aF195
aF196
aF197
aF198
aF199
aF200
aF201
aF202
aF203
aF204
aF205
assS'5'
(dp78
g3
I5
sg4
(dp79
sg8
(dp80
sg12
(lp81
sg14
(lp82
ssS'4'
(dp83
g3
I4
sg4
(dp84
S'cpu'
p85
I00
sS'clock'
p86
I00
ssg8
(dp87
g85
(lp88
F1.5099999999999998
aF1.25
aF1.4000000000000004
aF1.4100000000000001
aF1.3699999999999992
aF1.4000000000000004
aF1.3900000000000006
aF1.379999999999999
aF1.3900000000000006
aF1.3999999999999986
aF1.3800000000000026
aF1.4299999999999997
aF1.4199999999999982
aF1.3800000000000026
aF1.4199999999999982
aF1.3399999999999999
aF1.370000000000001
aF1.379999999999999
aF1.2800000000000011
aF1.2899999999999991
aF1.3900000000000006
aF1.3499999999999979
aF1.3000000000000043
aF1.3299999999999983
aF1.3100000000000023
aF1.2999999999999972
aF1.3299999999999983
aF1.2899999999999991
aF1.2700000000000031
aF1.2999999999999972
aF1.25
aF1.2700000000000031
aF1.2800000000000011
aF1.2299999999999969
aF1.2199999999999989
aF1.240000000000002
aF1.2199999999999989
aF1.2199999999999989
aF1.2199999999999989
aF1.230000000000004
aF1.240000000000002
aF1.2299999999999969
aF1.2100000000000009
aF1.1899999999999977
aF1.2100000000000009
aF1.2199999999999989
aF1.2100000000000009
aF1.220000000000006
aF1.1700000000000017
aF1.1899999999999977
aF1.2099999999999937
aF1.1700000000000017
aF1.1800000000000068
aF1.1999999999999886
aF1.2000000000000028
aF1.2000000000000028
aF1.1799999999999926
aF1.2000000000000028
aF1.1899999999999977
aF1.1700000000000017
aF1.1899999999999977
aF1.1800000000000068
aF1.1700000000000017
aF1.1799999999999926
aF1.2000000000000028
aF1.1500000000000057
aF1.1700000000000017
aF1.1599999999999966
aF1.1599999999999966
aF1.1400000000000006
aF1.1599999999999966
aF1.1500000000000057
aF1.1599999999999966
aF1.1400000000000006
aF1.1299999999999955
aF1.1500000000000057
aF1.1400000000000006
aF1.1400000000000006
aF1.1500000000000057
aF1.1499999999999915
aF1.1500000000000057
aF1.1299999999999955
aF1.1400000000000006
aF1.1400000000000006
aF1.1599999999999966
aF1.1400000000000006
aF1.1400000000000006
aF1.1500000000000057
aF1.1199999999999903
aF1.1800000000000068
aF1.1500000000000057
aF1.1400000000000006
aF1.1400000000000006
aF1.1399999999999864
aF1.1700000000000017
aF1.1800000000000068
aF1.1599999999999966
aF1.1800000000000068
aF2.1799999999999926
aF1.1800000000000068
aF1.1700000000000017
aF1.1599999999999824
aF1.160000000000025
aF1.1699999999999875
aF1.1699999999999875
aF1.1700000000000159
aF1.1599999999999966
aF1.1699999999999875
aF1.160000000000025
aF1.1499999999999773
aF1.1700000000000159
aF1.1599999999999966
aF1.1699999999999875
aF1.2000000000000171
aF1.1500000000000057
aF1.1599999999999966
aF1.1799999999999784
aF1.1500000000000057
aF1.1899999999999977
aF1.1599999999999966
aF1.1800000000000068
aF1.1599999999999966
aF1.1599999999999966
aF1.1800000000000068
aF1.1599999999999966
aF1.1500000000000057
aF1.1599999999999966
aF1.1899999999999977
aF1.1700000000000159
aF1.1799999999999784
aF1.160000000000025
aF1.1699999999999875
aF1.1699999999999875
aF1.1500000000000057
aF1.1899999999999977
aF1.1400000000000148
aF1.1800000000000068
aF1.1799999999999784
aF1.2000000000000171
aF1.1500000000000057
aF1.1699999999999875
aF1.1800000000000068
aF1.1999999999999886
aF1.1700000000000159
aF1.1899999999999977
aF1.1899999999999977
aF1.1800000000000068
aF1.1999999999999886
aF1.1699999999999875
aF1.2000000000000171
aF1.1800000000000068
aF1.1999999999999886
aF1.1899999999999977
aF1.1999999999999886
aF1.1899999999999977
aF1.210000000000008
aF1.1899999999999977
aF1.1800000000000068
aF1.1899999999999977
aF1.1899999999999977
aF1.1800000000000068
aF1.1899999999999977
aF1.1999999999999886
aF1.1800000000000068
aF1.1599999999999966
aF1.1800000000000068
aF1.1700000000000159
aF1.1899999999999977
aF1.1699999999999875
aF1.1800000000000068
aF1.1899999999999977
aF1.1999999999999886
aF1.2000000000000171
aF1.1999999999999886
aF1.1899999999999977
aF1.210000000000008
aF1.210000000000008
aF1.1699999999999875
aF1.1999999999999886
aF1.160000000000025
aF1.1799999999999784
aF1.1899999999999977
aF1.1899999999999977
aF1.1700000000000159
aF1.1399999999999864
aF1.1800000000000068
aF1.210000000000008
aF1.2199999999999989
aF1.2199999999999989
aF1.2199999999999989
aF1.1999999999999886
aF1.2199999999999989
aF1.1900000000000261
aF1.1999999999999886
aF1.2199999999999989
aF1.1800000000000068
aF1.2599999999999909
aF1.1899999999999977
aF2.1599999999999966
aF1.2400000000000091
aF1.1999999999999886
aF1.2000000000000171
aF1.2299999999999898
aF0
asg86
(lp89
F1
aF1
aF2
aF1
aF2
aF1
aF1
aF2
aF1
aF2
aF1
aF2
aF1
aF1
aF2
aF1
aF2
aF1
aF1
aF2
aF1
aF2
aF1
aF1
aF2
aF1
aF1
aF2
aF1
aF1
aF1
aF2
aF1
aF1
aF1
aF2
aF1
aF1
aF1
aF2
aF1
aF1
aF1
aF2
aF1
aF1
aF1
aF2
aF1
aF1
aF1
aF1
aF2
aF1
aF1
aF1
aF1
aF2
aF1
aF1
aF1
aF1
aF2
aF1
aF1
aF1
aF1
aF2
aF1
aF1
aF1
aF1
aF2
aF1
aF1
aF1
aF1
aF1
aF1
aF2
aF1
aF1
aF1
aF1
aF1
aF2
aF1
aF1
aF1
aF1
aF1
aF2
aF1
aF1
aF1
aF1
aF1
aF2
aF2
aF1
aF1
aF1
aF2
aF1
aF1
aF1
aF1
aF2
aF1
aF1
aF1
aF1
aF1
aF2
aF1
aF1
aF1
aF1
aF2
aF1
aF1
aF1
aF1
aF2
aF1
aF1
aF1
aF1
aF1
aF2
aF1
aF1
aF1
aF1
aF2
aF1
aF1
aF1
aF1
aF2
aF1
aF1
aF1
aF1
aF2
aF1
aF1
aF1
aF2
aF1
aF1
aF1
aF1
aF2
aF1
aF1
aF1
aF1
aF2
aF1
aF1
aF1
aF1
aF2
aF1
aF1
aF1
aF1
aF1
aF2
aF1
aF1
aF1
aF1
aF2
aF1
aF1
aF1
aF2
aF1
aF1
aF1
aF1
aF2
aF1
aF1
aF1
aF1
aF2
aF1
aF1
aF1
aF2
aF1
aF1
aF1
aF1
aF2
aF2
aF1
aF1
aF1
aF2
aF0
assg12
(lp90
sg14
(lp91
F2
aF3
aF4
aF5
aF6
aF7
aF8
aF9
aF10
aF11
aF12
aF13
aF14
aF15
aF16
aF17
aF18
aF19
aF20
aF21
aF22
aF23
aF24
aF25
aF26
aF27
aF28
aF29
aF30
aF31
aF32
aF33
aF34
aF35
aF36
aF37
aF38
aF39
aF40
aF41
aF42
aF43
aF44
aF45
aF46
aF47
aF48
aF49
aF50
aF51
aF52
aF53
aF54
aF55
aF56
aF57
aF58
aF59
aF60
aF61
aF62
aF63
aF64
aF65
aF66
aF67
aF68
aF69
aF70
aF71
aF72
aF73
aF74
aF75
aF76
aF77
aF78
aF79
aF80
aF81
aF82
aF83
aF84
aF85
aF86
aF87
aF88
aF89
aF90
aF91
aF92
aF93
aF94
aF95
aF96
aF97
aF98
aF99
aF100
aF101
aF102
aF103
aF104
aF105
aF106
aF107
aF108
aF109
aF110
aF111
aF112
aF113
aF114
aF115
aF116
aF117
aF118
aF119
aF120
aF121
aF122
aF123
aF124
aF125
aF126
aF127
aF128
aF129
aF130
aF131
aF132
aF133
aF134
aF135
aF136
aF137
aF138
aF139
aF140
aF141
aF142
aF143
aF144
aF145
aF146
aF147
aF148
aF149
aF150
aF151
aF152
aF153
aF154
aF155
aF156
aF157
aF158
aF159
aF160
aF161
aF162
aF163
aF164
aF165
aF166
aF167
aF168
aF169
aF170
aF171
aF172
aF173
aF174
aF175
aF176
aF177
aF178
aF179
aF180
aF181
aF182
aF183
aF184
aF185
aF186
aF187
aF188
aF189
aF190
aF191
aF192
aF193
aF194
aF195
aF196
aF197
aF198
aF199
aF200
aF201
aF202
aF203
aF204
aF205
assS'7'
(dp92
g3
I7
sg4
(dp93
sg8
(dp94
sg12
(lp95
sg14
(lp96
ssS'6'
(dp97
g3
I6
sg4
(dp98
sg8
(dp99
sg12
(lp100
sg14
(lp101
ss.(dp102
S'1'
(dp103
g3
I1
sS'data'
p104
I2
sS'spec'
p105
(dp106
S'logscale'
p107
I01
sS'name'
p108
S'Custom01_linear'
p109
sS'with'
p110
S'lines'
p111
sS'expr'
p112
S''
sS'forbidden'
p113
(lp114
S'final'
p115
aS'iterations'
p116
asS'enabled'
p117
I01
sS'theTitle'
p118
S'Residuals'
p119
sS'titles'
p120
(lp121
sS'alternateAxis'
p122
(lp123
sS'raisit'
p124
I00
sS'persist'
p125
I00
sS'xlabel'
p126
S'Time [s]'
p127
sS'type'
p128
S'regular'
p129
sS'accumulation'
p130
S'first'
p131
ssS'id'
p132
S'linear'
p133
ssS'3'
(dp134
g3
I3
sg104
I6
sg105
(dp135
g107
I00
sg108
S'Custom03_bounding'
p136
sS'with'
p137
g111
sg112
S''
sg113
(lp138
sg117
I01
sg118
S'Bounded variables'
p139
sg120
(lp140
sg122
g123
sg124
I00
sg125
I00
sg126
g127
sg128
g129
sg130
g131
ssg132
S'bounding'
p141
ssS'2'
(dp142
g3
I2
sg104
I1
sg105
(dp143
g107
I00
sg108
S'Custom02_continuity'
p144
sS'with'
p145
g111
sg112
S''
sg113
g138
sg117
I01
sg118
S'Continuity'
p146
sg120
(lp147
sg122
(lp148
g7
asg124
I00
sg125
I00
sg126
g127
sg128
g129
sg130
g131
ssg132
S'continuity'
p149
ss.