(dp1
S'1'
(dp2
S'nr'
p3
I1
sS'lastValid'
p4
(dp5
S'Cumulative'
p6
I01
sS'Global'
p7
I01
ssS'values'
p8
(dp9
g7
(lp10
F0.00019776106789999999
aF-0.0019858251619999999
aF-0.0092057111769999998
aF-0.0078325432229999995
aF0.0022648232920000001
aF-0.01089016603
aF-0.0071420527129999996
aF-0.0036272857300000002
aF0.0051489936349999998
aF-0.0066185331809999999
aF0.0064537431930000002
aF0.0031089887799999999
aF-0.0044545054340000001
aF-0.005070772613
aF0.0030297890719999999
aF-0.0016454572639999999
aF0.0028472431280000001
aF0.0037369743699999999
aF0.00014403839200000001
aF-0.00041193000879999998
aF-0.0014357487190000001
aF0.00070591529999999999
aF-0.001406277115
aF0.00019061511480000001
aF-0.00029948870479999998
aF0.00017228075499999999
aF-6.0060775520000002e-05
aF-1.3381084020000001e-05
aF-0.0002202407979
aF8.8526531119999993e-06
aF0.00026642919739999998
aF0.0005835226596
aF2.3009865470000001e-05
aF-0.00078236868960000002
aF-0.0011428203769999999
aF-0.00074577058929999995
aF-0.00029272634879999999
aF-0.00043678274749999997
aF-0.00027786867129999998
aF-0.00013291971360000001
aF-0.0001484461874
aF-4.3766311229999997e-05
aF5.6605633650000001e-05
aF-3.7182378390000001e-05
aF-3.6397799659999998e-05
aF4.3859023180000001e-05
aF0.0001026164905
aF0.00015175214819999999
aF0.0001742744295
aF0.0001594329756
aF0.0001433102212
aF0.00010465583939999999
aF5.829401341e-05
aF2.655248843e-05
aF6.069516684e-05
aF8.3359225719999996e-05
aF6.1744112049999999e-05
aF3.1813519599999998e-05
aF-4.8773532909999998e-05
aF-1.780983188e-05
aF1.6747356600000001e-05
aF7.3158637230000002e-05
aF0.00019275223189999999
aF0.00023235953329999999
aF0.00023384260699999999
aF0.00022744195580000001
aF0.00020194324319999999
aF0.0001759783357
aF0.0001054951175
aF1.7095213499999999e-05
aF5.9996493000000001e-05
aF8.2659540750000003e-05
aF9.1049186119999992e-06
aF-0.00018989271610000001
aF-0.0001950309348
aF-0.00017066338790000001
aF-0.0001334501076
aF-9.5213861230000006e-05
aF-7.3124370959999995e-05
aF-6.1487401079999998e-05
aF-5.5079567610000003e-05
aF-4.9242080410000002e-05
aF-4.6608981380000002e-05
aF-4.2179177769999998e-05
aF-3.6441018769999998e-05
aF-2.9665474139999999e-05
aF-2.085260818e-05
aF-1.888793276e-05
aF-2.143498557e-05
aF-2.2607236529999999e-05
aF-1.7439763730000002e-05
aF-1.064230183e-05
aF-6.6591085329999998e-06
aF-5.5186600480000001e-06
aF-7.9011564200000006e-06
aF-1.085578554e-05
aF-1.1172642629999999e-05
aF-9.4308480809999998e-06
aF-7.8809585780000007e-06
aF-6.3265840500000001e-06
aF-4.7740420000000003e-06
aF-2.57645206e-06
aF-2.5023617829999999e-06
aF-3.411827362e-06
aF-3.6584459040000001e-06
aF-3.9817062069999997e-06
aF-2.6303242729999999e-06
aF-1.508365821e-06
aF1.076641286e-06
aF1.576055276e-06
aF8.8966479349999996e-07
aF2.1219808630000001e-07
aF-6.7037740010000001e-07
aF-2.2550288209999998e-06
aF-1.1970474039999999e-06
aF2.6199965099999999e-07
aF2.6830974519999998e-06
aF2.592701948e-06
aF1.575430099e-06
aF6.8434123840000002e-07
aF-3.1097897440000001e-07
aF-1.395384232e-06
aF-5.2989425879999999e-07
aF6.4129655129999995e-08
aF1.598922441e-06
aF1.9962899429999999e-06
aF1.3142385670000001e-06
aF6.7127393970000004e-07
aF3.7491798039999997e-08
aF-8.0392457710000002e-07
aF-8.0954973489999996e-07
aF-2.349210727e-07
aF5.8745904350000002e-07
aF3.4138615399999999e-07
aF2.4572537259999998e-07
aF7.5262049199999998e-08
aF1.8725953689999999e-07
aF3.3595130829999998e-07
aF3.758454415e-07
aF2.6758890100000001e-07
aF2.0592513860000001e-07
aF1.5353634279999999e-07
aF6.4723790799999997e-08
aF-6.6596866090000005e-08
aF-1.4426353330000001e-07
aF-8.0414779940000003e-08
aF-5.2967652759999997e-08
aF3.5023817030000002e-08
aF9.7553231190000003e-08
aF9.1061364900000003e-08
aF1.5852343080000001e-08
aF-6.7473605240000005e-08
aF-7.9298415749999999e-08
aF-7.3320317959999994e-08
aF-5.076516173e-08
aF-3.1919365799999997e-08
aF-2.0003569630000001e-08
aF-3.6623737040000002e-09
aF-8.0613032669999993e-09
aF-2.8833024750000001e-08
asg6
(lp11
F1.5565008310000001e-05
aF-0.001970260154
aF-0.011175971329999999
aF-0.019008514550000001
aF-0.016743691259999999
aF-0.027633857290000001
aF-0.03477591
aF-0.038403195729999999
aF-0.033254202099999998
aF-0.039872735280000002
aF-0.033418992090000002
aF-0.03031000331
aF-0.034764508739999998
aF-0.039835281350000001
aF-0.036805492279999998
aF-0.038450949550000002
aF-0.035603706419999999
aF-0.031866732049999999
aF-0.031722693660000002
aF-0.03213462366
aF-0.033570372379999998
aF-0.032864457079999999
aF-0.0342707342
aF-0.034080119079999999
aF-0.034379607790000002
aF-0.034207327029999998
aF-0.034267387810000001
aF-0.03428076889
aF-0.034501009690000001
aF-0.034492157039999999
aF-0.034225727839999998
aF-0.033642205180000002
aF-0.033619195310000002
aF-0.034401564000000003
aF-0.035544384380000002
aF-0.036290154970000002
aF-0.036582881320000003
aF-0.03701966407
aF-0.03729753274
aF-0.037430452449999999
aF-0.037578898639999997
aF-0.037622664950000002
aF-0.037566059319999998
aF-0.037603241699999998
aF-0.037639639490000001
aF-0.03759578047
aF-0.037493163980000001
aF-0.037341411829999997
aF-0.037167137400000001
aF-0.037007704430000003
aF-0.036864394209999998
aF-0.036759738370000003
aF-0.036701444350000001
aF-0.036674891869999997
aF-0.036614196699999997
aF-0.036530837470000001
aF-0.036469093360000003
aF-0.036437279840000003
aF-0.03648605337
aF-0.036503863210000001
aF-0.036487115850000001
aF-0.03641395721
aF-0.036221204979999998
aF-0.035988845450000001
aF-0.035755002840000001
aF-0.035527560880000003
aF-0.035325617640000001
aF-0.035149639310000001
aF-0.035044144190000001
aF-0.035027048970000002
aF-0.034967052479999997
aF-0.034884392940000002
aF-0.034875288019999999
aF-0.03506518074
aF-0.03526021167
aF-0.035430875059999999
aF-0.035564325170000001
aF-0.03565953903
aF-0.035732663400000003
aF-0.035794150800000001
aF-0.035849230369999999
aF-0.035898472450000003
aF-0.035945081429999998
aF-0.035987260610000002
aF-0.036023701630000002
aF-0.036053367099999997
aF-0.036074219710000001
aF-0.036093107639999997
aF-0.036114542630000003
aF-0.036137149860000002
aF-0.036154589629999997
aF-0.03616523193
aF-0.036171891040000001
aF-0.036177409700000003
aF-0.03618531086
aF-0.036196166639999999
aF-0.03620733928
aF-0.036216770129999999
aF-0.036224651089999997
aF-0.036230977669999997
aF-0.036235751720000001
aF-0.03623832817
aF-0.036240830529999997
aF-0.036244242359999998
aF-0.036247900800000003
aF-0.03625188251
aF-0.036254512830000002
aF-0.036256021200000002
aF-0.036254944560000002
aF-0.036253368500000001
aF-0.036252478839999998
aF-0.036252266640000003
aF-0.036252937020000001
aF-0.036255192050000003
aF-0.03625638909
aF-0.03625612709
aF-0.036253444000000003
aF-0.036250851289999997
aF-0.036249275859999999
aF-0.036248591519999998
aF-0.036248902499999999
aF-0.036250297889999998
aF-0.036250827780000001
aF-0.036250763649999997
aF-0.036249164729999998
aF-0.036247168439999998
aF-0.036245854199999997
aF-0.036245182930000001
aF-0.03624514543
aF-0.036245949360000002
aF-0.036246758910000003
aF-0.036246993829999997
aF-0.036246406369999998
aF-0.036246064979999999
aF-0.036245819259999999
aF-0.036245744000000003
aF-0.036245556739999997
aF-0.036245220789999998
aF-0.03624484494
aF-0.036244577350000001
aF-0.036244371429999998
aF-0.036244217889999999
aF-0.036244153170000001
aF-0.036244219760000002
aF-0.036244364029999997
aF-0.036244444440000002
aF-0.03624449741
aF-0.036244462390000003
aF-0.03624436483
aF-0.036244273770000002
aF-0.036244257920000002
aF-0.036244325389999998
aF-0.036244404690000002
aF-0.036244478009999997
aF-0.03624452878
aF-0.036244560699999998
aF-0.036244580700000001
aF-0.036244584359999998
aF-0.036244592419999999
aF-0.036244621259999998
assS'slaves'
p12
(lp13
sS'times'
p14
(lp15
F2
aF3
aF4
aF5
aF6
aF7
aF8
aF9
aF10
aF11
aF12
aF13
aF14
aF15
aF16
aF17
aF18
aF19
aF20
aF21
aF22
aF23
aF24
aF25
aF26
aF27
aF28
aF29
aF30
aF31
aF32
aF33
aF34
aF35
aF36
aF37
aF38
aF39
aF40
aF41
aF42
aF43
aF44
aF45
aF46
aF47
aF48
aF49
aF50
aF51
aF52
aF53
aF54
aF55
aF56
aF57
aF58
aF59
aF60
aF61
aF62
aF63
aF64
aF65
aF66
aF67
aF68
aF69
aF70
aF71
aF72
aF73
aF74
aF75
aF76
aF77
aF78
aF79
aF80
aF81
aF82
aF83
aF84
aF85
aF86
aF87
aF88
aF89
aF90
aF91
aF92
aF93
aF94
aF95
aF96
aF97
aF98
aF99
aF100
aF101
aF102
aF103
aF104
aF105
aF106
aF107
aF108
aF109
aF110
aF111
aF112
aF113
aF114
aF115
aF116
aF117
aF118
aF119
aF120
aF121
aF122
aF123
aF124
aF125
aF126
aF127
aF128
aF129
aF130
aF131
aF132
aF133
aF134
aF135
aF136
aF137
aF138
aF139
aF140
aF141
aF142
aF143
aF144
aF145
aF146
aF147
aF148
aF149
aF150
aF151
aF152
aF153
aF154
aF155
aF156
aF157
aF158
aF159
aF160
aF161
assS'3'
(dp16
g3
I3
sg4
(dp17
S'p_rgh'
p18
I01
sS'Uy'
p19
I01
sS'Ux'
p20
I01
sS'Uz'
p21
I01
sS'k'
I01
sS'T'
I01
sS'omega'
p22
I01
ssg8
(dp23
g18
(lp24
F23
aF5
aF11
aF11
aF7
aF10
aF10
aF7
aF10
aF9
aF7
aF9
aF8
aF7
aF8
aF7
aF7
aF7
aF7
aF7
aF7
aF6
aF6
aF7
aF6
aF6
aF6
aF6
aF6
aF6
aF5
aF5
aF5
aF5
aF5
aF5
aF5
aF5
aF5
aF5
aF5
aF5
aF5
aF5
aF5
aF5
aF5
aF5
aF5
aF5
aF5
aF5
aF5
aF5
aF5
aF5
aF5
aF5
aF5
aF5
aF4
aF4
aF4
aF4
aF4
aF4
aF4
aF4
aF4
aF4
aF4
aF4
aF4
aF4
aF4
aF4
aF4
aF4
aF4
aF4
aF4
aF4
aF4
aF4
aF4
aF4
aF4
aF4
aF4
aF4
aF4
aF4
aF4
aF4
aF4
aF4
aF4
aF4
aF4
aF4
aF4
aF4
aF4
aF4
aF4
aF4
aF4
aF4
aF4
aF4
aF4
aF4
aF4
aF4
aF4
aF4
aF4
aF4
aF4
aF4
aF4
aF4
aF5
aF4
aF4
aF4
aF4
aF4
aF5
aF4
aF4
aF4
aF4
aF5
aF5
aF5
aF4
aF4
aF4
aF4
aF4
aF4
aF4
aF4
aF4
aF4
aF4
aF4
aF4
aF4
aF4
aF4
aF4
aF4
aF4
aF4
aF4
aF4
aF4
aF4
asg19
(lp25
F2
aF3
aF3
aF3
aF3
aF3
aF3
aF3
aF3
aF3
aF3
aF3
aF3
aF3
aF3
aF3
aF3
aF3
aF3
aF3
aF3
aF3
aF3
aF3
aF3
aF3
aF3
aF3
aF3
aF3
aF3
aF3
aF3
aF3
aF3
aF2
aF3
aF3
aF3
aF3
aF2
aF3
aF3
aF3
aF3
aF3
aF3
aF3
aF3
aF3
aF3
aF3
aF3
aF3
aF2
aF3
aF3
aF2
aF2
aF2
aF2
aF2
aF2
aF2
aF2
aF2
aF2
aF2
aF2
aF3
aF2
aF3
aF3
aF2
aF3
aF3
aF2
aF2
aF2
aF2
aF2
aF2
aF2
aF2
aF3
aF3
aF3
aF3
aF3
aF3
aF3
aF3
aF3
aF3
aF3
aF3
aF3
aF3
aF3
aF3
aF2
aF3
aF2
aF3
aF2
aF3
aF3
aF3
aF3
aF3
aF3
aF3
aF3
aF3
aF3
aF3
aF3
aF3
aF3
aF3
aF2
aF2
aF2
aF2
aF2
aF2
aF2
aF2
aF2
aF2
aF2
aF2
aF2
aF2
aF2
aF1
aF1
aF1
aF1
aF1
aF1
aF1
aF1
aF1
aF1
aF1
aF1
aF1
aF1
aF1
aF1
aF1
aF1
aF1
aF1
aF1
aF1
aF1
aF1
aF1
asg20
(lp26
F2
aF3
aF3
aF3
aF3
aF3
aF3
aF3
aF3
aF2
aF3
aF3
aF3
aF3
aF3
aF2
aF3
aF3
aF2
aF3
aF3
aF3
aF3
aF2
aF3
aF3
aF3
aF2
aF2
aF2
aF3
aF2
aF2
aF2
aF2
aF2
aF2
aF2
aF2
aF2
aF2
aF2
aF2
aF2
aF2
aF3
aF3
aF3
aF3
aF3
aF3
aF3
aF3
aF3
aF3
aF3
aF3
aF2
aF3
aF2
aF2
aF2
aF3
aF3
aF3
aF3
aF3
aF3
aF3
aF3
aF2
aF2
aF2
aF2
aF2
aF2
aF2
aF3
aF3
aF3
aF3
aF3
aF3
aF3
aF3
aF3
aF3
aF3
aF3
aF3
aF3
aF3
aF3
aF3
aF3
aF3
aF3
aF3
aF3
aF3
aF3
aF3
aF3
aF3
aF3
aF3
aF3
aF3
aF3
aF3
aF3
aF3
aF3
aF3
aF3
aF3
aF3
aF3
aF3
aF3
aF3
aF3
aF3
aF3
aF3
aF3
aF3
aF3
aF3
aF3
aF3
aF3
aF3
aF3
aF2
aF2
aF2
aF2
aF2
aF2
aF2
aF2
aF2
aF2
aF2
aF2
aF1
aF1
aF1
aF1
aF1
aF1
aF1
aF1
aF1
aF1
aF1
aF1
aF1
aF1
asg21
(lp27
F2
aF2
aF2
aF2
aF2
aF3
aF2
aF2
aF3
aF2
aF2
aF2
aF2
aF3
aF3
aF3
aF3
aF3
aF3
aF3
aF3
aF3
aF3
aF3
aF3
aF3
aF3
aF3
aF3
aF3
aF3
aF3
aF3
aF3
aF3
aF3
aF3
aF3
aF3
aF3
aF3
aF3
aF3
aF3
aF3
aF3
aF3
aF3
aF3
aF3
aF3
aF3
aF3
aF3
aF3
aF3
aF3
aF3
aF3
aF3
aF3
aF3
aF3
aF3
aF3
aF3
aF3
aF3
aF3
aF3
aF3
aF3
aF3
aF3
aF3
aF3
aF3
aF3
aF2
aF3
aF2
aF2
aF2
aF2
aF2
aF2
aF3
aF3
aF3
aF3
aF3
aF3
aF3
aF3
aF3
aF3
aF3
aF3
aF3
aF3
aF3
aF3
aF3
aF3
aF3
aF3
aF3
aF3
aF3
aF3
aF3
aF3
aF3
aF3
aF3
aF3
aF3
aF3
aF3
aF3
aF3
aF3
aF3
aF3
aF3
aF3
aF3
aF3
aF3
aF3
aF3
aF3
aF3
aF3
aF3
aF3
aF3
aF3
aF3
aF3
aF3
aF3
aF3
aF2
aF2
aF2
aF2
aF2
aF2
aF2
aF2
aF2
aF2
aF2
aF2
aF1
aF1
aF1
aF1
aF1
asS'k'
(lp28
F2
aF2
aF2
aF2
aF2
aF2
aF2
aF2
aF2
aF2
aF2
aF2
aF2
aF2
aF2
aF2
aF2
aF2
aF2
aF2
aF2
aF2
aF2
aF2
aF2
aF2
aF2
aF2
aF2
aF2
aF2
aF2
aF2
aF2
aF2
aF2
aF2
aF2
aF2
aF2
aF2
aF2
aF2
aF2
aF2
aF2
aF2
aF2
aF2
aF2
aF2
aF2
aF2
aF2
aF2
aF2
aF2
aF2
aF2
aF2
aF2
aF2
aF2
aF2
aF2
aF2
aF2
aF2
aF2
aF2
aF2
aF2
aF2
aF2
aF2
aF2
aF2
aF2
aF2
aF2
aF2
aF2
aF2
aF2
aF2
aF2
aF2
aF2
aF2
aF2
aF2
aF2
aF2
aF2
aF2
aF2
aF2
aF2
aF2
aF2
aF2
aF2
aF2
aF2
aF2
aF2
aF2
aF2
aF2
aF2
aF2
aF2
aF2
aF2
aF2
aF2
aF2
aF2
aF2
aF2
aF2
aF2
aF2
aF2
aF2
aF2
aF2
aF2
aF2
aF2
aF2
aF2
aF2
aF2
aF2
aF2
aF2
aF2
aF2
aF2
aF2
aF2
aF2
aF2
aF2
aF2
aF2
aF2
aF2
aF2
aF2
aF2
aF2
aF2
aF2
aF2
aF2
aF2
aF2
aF2
asS'T'
(lp29
F3
aF3
aF2
aF2
aF2
aF2
aF2
aF2
aF2
aF3
aF3
aF3
aF3
aF3
aF3
aF3
aF3
aF3
aF3
aF3
aF3
aF3
aF3
aF3
aF3
aF3
aF3
aF3
aF3
aF3
aF3
aF3
aF3
aF3
aF3
aF3
aF3
aF2
aF2
aF2
aF2
aF2
aF2
aF2
aF2
aF2
aF2
aF2
aF2
aF3
aF3
aF3
aF3
aF3
aF3
aF3
aF3
aF3
aF3
aF3
aF3
aF3
aF3
aF3
aF3
aF3
aF3
aF3
aF3
aF3
aF3
aF3
aF3
aF3
aF3
aF3
aF3
aF3
aF3
aF3
aF3
aF3
aF3
aF3
aF3
aF3
aF3
aF3
aF3
aF3
aF3
aF3
aF3
aF3
aF3
aF3
aF3
aF3
aF3
aF3
aF3
aF3
aF3
aF3
aF3
aF3
aF3
aF3
aF3
aF3
aF3
aF3
aF3
aF3
aF3
aF3
aF3
aF3
aF3
aF3
aF3
aF3
aF3
aF3
aF3
aF3
aF3
aF3
aF3
aF3
aF3
aF3
aF3
aF3
aF3
aF3
aF3
aF3
aF3
aF2
aF2
aF2
aF2
aF2
aF2
aF2
aF2
aF2
aF2
aF2
aF2
aF2
aF2
aF2
aF2
aF2
aF2
aF2
aF2
aF2
asg22
(lp30
F2
aF2
aF2
aF2
aF2
aF2
aF2
aF2
aF2
aF2
aF2
aF2
aF2
aF2
aF2
aF2
aF2
aF2
aF2
aF2
aF2
aF2
aF2
aF2
aF2
aF2
aF2
aF2
aF2
aF2
aF2
aF2
aF2
aF2
aF2
aF2
aF2
aF2
aF2
aF2
aF2
aF2
aF2
aF2
aF2
aF2
aF2
aF2
aF2
aF2
aF2
aF2
aF2
aF2
aF2
aF2
aF2
aF2
aF3
aF3
aF3
aF3
aF3
aF3
aF2
aF2
aF2
aF2
aF2
aF2
aF2
aF2
aF2
aF2
aF2
aF2
aF2
aF2
aF2
aF2
aF2
aF2
aF2
aF2
aF2
aF2
aF2
aF2
aF2
aF2
aF2
aF2
aF2
aF2
aF2
aF2
aF2
aF2
aF2
aF2
aF2
aF2
aF2
aF2
aF2
aF2
aF2
aF2
aF2
aF2
aF2
aF2
aF2
aF2
aF2
aF2
aF2
aF2
aF2
aF2
aF2
aF2
aF2
aF2
aF2
aF2
aF2
aF2
aF2
aF2
aF2
aF2
aF2
aF2
aF1
aF1
aF1
aF1
aF1
aF1
aF1
aF1
aF1
aF1
aF1
aF1
aF1
aF1
aF1
aF1
aF1
aF1
aF1
aF1
aF1
aF1
aF1
aF1
aF1
aF1
assg12
(lp31
sg14
(lp32
F2
aF3
aF4
aF5
aF6
aF7
aF8
aF9
aF10
aF11
aF12
aF13
aF14
aF15
aF16
aF17
aF18
aF19
aF20
aF21
aF22
aF23
aF24
aF25
aF26
aF27
aF28
aF29
aF30
aF31
aF32
aF33
aF34
aF35
aF36
aF37
aF38
aF39
aF40
aF41
aF42
aF43
aF44
aF45
aF46
aF47
aF48
aF49
aF50
aF51
aF52
aF53
aF54
aF55
aF56
aF57
aF58
aF59
aF60
aF61
aF62
aF63
aF64
aF65
aF66
aF67
aF68
aF69
aF70
aF71
aF72
aF73
aF74
aF75
aF76
aF77
aF78
aF79
aF80
aF81
aF82
aF83
aF84
aF85
aF86
aF87
aF88
aF89
aF90
aF91
aF92
aF93
aF94
aF95
aF96
aF97
aF98
aF99
aF100
aF101
aF102
aF103
aF104
aF105
aF106
aF107
aF108
aF109
aF110
aF111
aF112
aF113
aF114
aF115
aF116
aF117
aF118
aF119
aF120
aF121
aF122
aF123
aF124
aF125
aF126
aF127
aF128
aF129
aF130
aF131
aF132
aF133
aF134
aF135
aF136
aF137
aF138
aF139
aF140
aF141
aF142
aF143
aF144
aF145
aF146
aF147
aF148
aF149
aF150
aF151
aF152
aF153
aF154
aF155
aF156
aF157
aF158
aF159
aF160
aF161
assS'2'
(dp33
g3
I2
sg4
(dp34
S'Uz_final'
p35
I01
sS'Uz_iterations'
p36
I01
sS'Ux_iterations'
p37
I01
sS'Uy'
p38
I01
sS'Ux'
p39
I01
sS'Uz'
p40
I01
sS'omega_iterations'
p41
I01
sS'k'
I01
sS'omega_final'
p42
I01
sS'T_iterations'
p43
I01
sS'T_final'
p44
I01
sS'p_rgh'
p45
I01
sS'p_rgh_final'
p46
I01
sS'T'
I01
sS'k_iterations'
p47
I01
sS'Uy_final'
p48
I01
sS'Uy_iterations'
p49
I01
sS'omega'
p50
I01
sS'k_final'
p51
I01
sS'Ux_final'
p52
I01
sS'p_rgh_iterations'
p53
I01
ssg8
(dp54
g35
(lp55
F0.02172557294
aF0.035736023489999998
aF0.018321351730000001
aF0.019272475059999999
aF0.023238804129999999
aF0.0082155441759999993
aF0.02080641158
aF0.019607914359999999
aF0.0063095498949999997
aF0.013338127300000001
aF0.01145442002
aF0.0093667235349999996
aF0.010360015760000001
aF0.0044278005709999999
aF0.0040763639340000001
aF0.0034919809540000001
aF0.0029055611439999999
aF0.0026606354039999999
aF0.0025293992510000002
aF0.0024012695129999998
aF0.0023723733839999999
aF0.0022949605060000001
aF0.002150373041
aF0.002003446286
aF0.001917546716
aF0.001806798614
aF0.001669075083
aF0.0015891739179999999
aF0.001558639909
aF0.0015069360270000001
aF0.0014352537339999999
aF0.0013998580090000001
aF0.0013673023490000001
aF0.0013364116870000001
aF0.0012825731380000001
aF0.001221324486
aF0.0011572071199999999
aF0.001145678929
aF0.001141445185
aF0.001114210711
aF0.0010811501549999999
aF0.001037740737
aF0.0010227478110000001
aF0.0010100219770000001
aF0.00098369219600000007
aF0.00094754133499999995
aF0.00091703549810000001
aF0.00089247780579999999
aF0.00086494701910000004
aF0.00083198960929999999
aF0.00079974801640000004
aF0.00077896532159999995
aF0.00076680253099999996
aF0.00074941347929999996
aF0.00072403889549999998
aF0.00068530687989999998
aF0.00066872584330000004
aF0.00066484094730000004
aF0.00063993269709999997
aF0.0006107872995
aF0.00058429505330000002
aF0.00057054846419999999
aF0.0005637260617
aF0.0005572051579
aF0.00053956230850000001
aF0.00051469427849999997
aF0.00049118874290000002
aF0.00047363029909999998
aF0.00045789782669999998
aF0.00044010976029999998
aF0.0004253088513
aF0.00039824166469999998
aF0.00037246903870000002
aF0.00034746193680000001
aF0.00031666419239999999
aF0.00028982304609999999
aF0.00026377948439999999
aF0.00023278676630000001
aF0.00055083977260000005
aF0.00018529257379999999
aF0.00043923766769999998
aF0.00039170476319999999
aF0.00034318978290000002
aF0.00029648317489999997
aF0.00025421940739999999
aF0.00022137305320000001
aF7.2512041700000006e-05
aF6.176546816e-05
aF5.2726253999999998e-05
aF4.6444700649999998e-05
aF4.2411827e-05
aF3.9326515330000002e-05
aF3.6194941579999997e-05
aF3.2957954399999999e-05
aF2.995775172e-05
aF2.7426116850000001e-05
aF2.5291548960000001e-05
aF2.3337857610000001e-05
aF2.1355492669999999e-05
aF1.9310696890000002e-05
aF1.7428887609999999e-05
aF1.57016511e-05
aF1.4444580490000001e-05
aF1.321274101e-05
aF1.214517811e-05
aF1.093308786e-05
aF9.9044701040000006e-06
aF9.0759408190000006e-06
aF8.3615094599999995e-06
aF7.6707376000000001e-06
aF6.9787665170000004e-06
aF6.3163034180000003e-06
aF5.7267967950000003e-06
aF5.243397636e-06
aF4.8643792230000001e-06
aF4.5137105249999996e-06
aF4.1956461930000003e-06
aF3.9208078160000002e-06
aF3.6896418920000001e-06
aF3.483373003e-06
aF3.2870781700000001e-06
aF3.037151228e-06
aF2.7913655129999998e-06
aF2.5839354900000001e-06
aF2.4081560229999999e-06
aF2.2439401959999999e-06
aF2.0777986859999999e-06
aF1.9074973619999999e-06
aF1.7418066689999999e-06
aF1.589272707e-06
aF1.451650836e-06
aF1.3236994250000001e-06
aF1.2006643059999999e-06
aF1.0840901820000001e-06
aF9.7677312279999999e-07
aF8.7418395019999998e-07
aF7.4912114180000005e-07
aF6.480437391e-07
aF5.8580507300000005e-07
aF5.4923084789999999e-07
aF5.1562120649999999e-07
aF4.7193017209999998e-07
aF4.2066226030000001e-07
aF9.6877959979999991e-07
aF9.0526596980000001e-07
aF8.5439772910000002e-07
aF7.9887802220000003e-07
aF7.2651404799999998e-07
aF6.5385051780000003e-07
aF5.873975068e-07
aF5.3090716049999995e-07
aF4.870864036e-07
aF4.4990676219999998e-07
aF4.1579006770000002e-07
aF3.841242707e-07
aF9.7765393210000001e-07
aF9.920823692999999e-07
aF9.9716110530000001e-07
aF9.6069280050000006e-07
aF8.8597298120000004e-07
asg36
(lp56
F2
aF2
aF2
aF2
aF2
aF3
aF2
aF2
aF3
aF2
aF2
aF2
aF2
aF3
aF3
aF3
aF3
aF3
aF3
aF3
aF3
aF3
aF3
aF3
aF3
aF3
aF3
aF3
aF3
aF3
aF3
aF3
aF3
aF3
aF3
aF3
aF3
aF3
aF3
aF3
aF3
aF3
aF3
aF3
aF3
aF3
aF3
aF3
aF3
aF3
aF3
aF3
aF3
aF3
aF3
aF3
aF3
aF3
aF3
aF3
aF3
aF3
aF3
aF3
aF3
aF3
aF3
aF3
aF3
aF3
aF3
aF3
aF3
aF3
aF3
aF3
aF3
aF3
aF2
aF3
aF2
aF2
aF2
aF2
aF2
aF2
aF3
aF3
aF3
aF3
aF3
aF3
aF3
aF3
aF3
aF3
aF3
aF3
aF3
aF3
aF3
aF3
aF3
aF3
aF3
aF3
aF3
aF3
aF3
aF3
aF3
aF3
aF3
aF3
aF3
aF3
aF3
aF3
aF3
aF3
aF3
aF3
aF3
aF3
aF3
aF3
aF3
aF3
aF3
aF3
aF3
aF3
aF3
aF3
aF3
aF3
aF3
aF3
aF3
aF3
aF3
aF3
aF3
aF2
aF2
aF2
aF2
aF2
aF2
aF2
aF2
aF2
aF2
aF2
aF2
aF1
aF1
aF1
aF1
aF1
asg37
(lp57
F2
aF3
aF3
aF3
aF3
aF3
aF3
aF3
aF3
aF2
aF3
aF3
aF3
aF3
aF3
aF2
aF3
aF3
aF2
aF3
aF3
aF3
aF3
aF2
aF3
aF3
aF3
aF2
aF2
aF2
aF3
aF2
aF2
aF2
aF2
aF2
aF2
aF2
aF2
aF2
aF2
aF2
aF2
aF2
aF2
aF3
aF3
aF3
aF3
aF3
aF3
aF3
aF3
aF3
aF3
aF3
aF3
aF2
aF3
aF2
aF2
aF2
aF3
aF3
aF3
aF3
aF3
aF3
aF3
aF3
aF2
aF2
aF2
aF2
aF2
aF2
aF2
aF3
aF3
aF3
aF3
aF3
aF3
aF3
aF3
aF3
aF3
aF3
aF3
aF3
aF3
aF3
aF3
aF3
aF3
aF3
aF3
aF3
aF3
aF3
aF3
aF3
aF3
aF3
aF3
aF3
aF3
aF3
aF3
aF3
aF3
aF3
aF3
aF3
aF3
aF3
aF3
aF3
aF3
aF3
aF3
aF3
aF3
aF3
aF3
aF3
aF3
aF3
aF3
aF3
aF3
aF3
aF3
aF3
aF2
aF2
aF2
aF2
aF2
aF2
aF2
aF2
aF2
aF2
aF2
aF2
aF1
aF1
aF1
aF1
aF1
aF1
aF1
aF1
aF1
aF1
aF1
aF1
aF1
aF1
asg38
(lp58
F0.15699593140000001
aF0.31585277090000002
aF0.1875947416
aF0.043904351369999997
aF0.14469550389999999
aF0.14758994
aF0.053946535570000002
aF0.1109406005
aF0.07009819816
aF0.035269331340000001
aF0.059712029950000002
aF0.042449182590000002
aF0.02847044629
aF0.037860476410000003
aF0.0262182291
aF0.021592220549999999
aF0.023696038780000001
aF0.016158348909999998
aF0.01520741338
aF0.01691047801
aF0.01494796502
aF0.01284835883
aF0.011496633230000001
aF0.01030938633
aF0.01015732169
aF0.010428594710000001
aF0.0096697327390000004
aF0.0085081234150000008
aF0.0077521081360000001
aF0.0076251229900000002
aF0.0077342627060000002
aF0.0077402002490000003
aF0.0072704858480000002
aF0.0066585992129999999
aF0.0062850776060000002
aF0.0061553916199999998
aF0.0061778564010000004
aF0.0059820430080000002
aF0.0055713506000000003
aF0.0051824937380000003
aF0.0049534791159999998
aF0.0048993193179999997
aF0.0047685500739999996
aF0.0045085356449999997
aF0.0042390227879999997
aF0.0040413053359999998
aF0.0039104704819999999
aF0.0037895926999999999
aF0.0036133440549999999
aF0.0033818211990000002
aF0.0031632432940000002
aF0.0029900631039999999
aF0.002858242758
aF0.0027298100830000002
aF0.0025944814300000001
aF0.0024995168449999999
aF0.0023665306569999999
aF0.0022497105239999999
aF0.0021872933880000001
aF0.0021546066589999999
aF0.0021111450790000002
aF0.0020337454719999998
aF0.001945812563
aF0.001879241158
aF0.0018200532549999999
aF0.001757678099
aF0.0016804761910000001
aF0.0015884730260000001
aF0.0014932746089999999
aF0.0014020637919999999
aF0.001292386264
aF0.0012091824599999999
aF0.0011133281960000001
aF0.001017801505
aF0.00094542625479999997
aF0.00085821576289999996
aF0.00076514605020000005
aF0.00068676269080000004
aF0.0006165886007
aF0.00054593362130000002
aF0.00048095164150000001
aF0.00041697841910000002
aF0.0003592014957
aF0.00031009935889999998
aF0.00027107085000000001
aF0.0002357768181
aF0.0002060227414
aF0.00018226617040000001
aF0.0001632306521
aF0.00014660717169999999
aF0.00013207087680000001
aF0.0001193992365
aF0.00010825479719999999
aF9.8180423550000003e-05
aF8.9024627629999994e-05
aF8.0798204399999999e-05
aF7.3542487029999997e-05
aF6.7185680990000001e-05
aF6.1353731400000006e-05
aF5.5762333970000003e-05
aF5.032195871e-05
aF4.6210627020000001e-05
aF4.1650651809999999e-05
aF3.816970609e-05
aF3.4395592319999999e-05
aF3.1605650439999997e-05
aF2.8544174660000001e-05
aF2.5868284899999998e-05
aF2.354395389e-05
aF2.1638205199999999e-05
aF1.9968685849999998e-05
aF1.836555168e-05
aF1.685166314e-05
aF1.5527425349999999e-05
aF1.445536306e-05
aF1.356866289e-05
aF1.2779372329999999e-05
aF1.1995492180000001e-05
aF1.118463456e-05
aF1.038216576e-05
aF9.6583696549999994e-06
aF9.1727420140000004e-06
aF8.7125288140000006e-06
aF8.2020098899999997e-06
aF7.6385049199999999e-06
aF7.1097509379999998e-06
aF6.657679235e-06
aF6.2424658529999996e-06
aF5.818295376e-06
aF5.3948014630000003e-06
aF4.9790711699999997e-06
aF4.5932597890000003e-06
aF4.2376232950000002e-06
aF3.9218550800000002e-06
aF3.6489602399999999e-06
aF3.3574259370000002e-06
aF3.25901994e-06
aF3.1513096220000002e-06
aF2.9624839820000001e-06
aF2.7130766019999999e-06
aF2.4576422979999999e-06
aF2.2403625899999998e-06
aF2.0712480869999998e-06
aF1.932335936e-06
aF1.7982724740000001e-06
aF1.6660679700000001e-06
aF1.535202571e-06
aF1.3681304060000001e-06
aF1.2182611820000001e-06
aF1.1099233669999999e-06
aF1.0330903989999999e-06
aF9.6704210639999995e-07
aF8.9636973060000002e-07
aF8.1733514779999997e-07
aF7.3889419870000005e-07
aF6.6928103390000004e-07
aF6.0301259300000003e-07
aF5.4578536850000005e-07
aF4.9752371640000004e-07
aF4.5553906439999999e-07
asg39
(lp59
F0.1073361687
aF0.39813409119999998
aF0.24593221169999999
aF0.03634242126
aF0.19090530480000001
aF0.1913232272
aF0.043683748350000003
aF0.12028057559999999
aF0.077507455459999999
aF0.026882272919999999
aF0.068323544929999994
aF0.045507787199999997
aF0.02781693658
aF0.03983437234
aF0.022314927490000001
aF0.018485014080000001
aF0.023957256869999999
aF0.015938936139999998
aF0.0154379774
aF0.01598457792
aF0.012104152870000001
aF0.012147710189999999
aF0.01189537591
aF0.010572637770000001
aF0.01063497243
aF0.010551376960000001
aF0.010025944050000001
aF0.0095465355799999995
aF0.0092840146689999997
aF0.0093781262630000008
aF0.0095699777070000006
aF0.0093418421430000002
aF0.0090194460099999995
aF0.0087401623559999995
aF0.0087166852239999992
aF0.0087771361990000001
aF0.0086784106509999997
aF0.0084108318369999994
aF0.0080521774040000008
aF0.0077551034420000001
aF0.0075275342920000004
aF0.0072420968049999998
aF0.0069153904840000002
aF0.0065646407539999996
aF0.0062240077430000002
aF0.0059092547610000001
aF0.005585570261
aF0.0053060294309999999
aF0.0050481137529999999
aF0.0048197838729999998
aF0.0046114860600000003
aF0.0044071455439999999
aF0.0042013575430000002
aF0.0040098406670000001
aF0.0038408668550000001
aF0.0036822134310000002
aF0.0035309397469999999
aF0.0033874390320000002
aF0.003275099669
aF0.0031532444910000001
aF0.003047306136
aF0.0029470198320000001
aF0.0028557272029999998
aF0.002755791782
aF0.0026689572830000002
aF0.002603289519
aF0.0025494275990000002
aF0.0024897263420000002
aF0.0024146841570000001
aF0.002319726166
aF0.0022123986949999998
aF0.0021007260410000001
aF0.0019746736330000002
aF0.0018329095529999999
aF0.001677194676
aF0.0015272652220000001
aF0.001386619361
aF0.0012544694669999999
aF0.0011254052770000001
aF0.0010100080710000001
aF0.00091107019740000004
aF0.00082572839680000005
aF0.0007513453645
aF0.00068665734010000005
aF0.00062825360930000005
aF0.00057602551860000005
aF0.00052793178579999998
aF0.00048379365900000002
aF0.00044287401740000001
aF0.00040491485399999998
aF0.00036944096620000001
aF0.00033672907499999999
aF0.00030679692500000001
aF0.00027919675709999999
aF0.00025388751030000001
aF0.0002305529523
aF0.0002088986195
aF0.00018894002639999999
aF0.00017073021200000001
aF0.0001542632526
aF0.00013948453470000001
aF0.0001260885969
aF0.0001140898394
aF0.000103270154
aF9.3745418909999995e-05
aF8.5294748320000001e-05
aF7.7863687930000003e-05
aF7.118366066e-05
aF6.5170083939999999e-05
aF5.978987791e-05
aF5.5051860460000003e-05
aF5.0871871560000001e-05
aF4.7134878119999999e-05
aF4.3743392400000003e-05
aF4.0651515979999999e-05
aF3.780120983e-05
aF3.518534673e-05
aF3.275640273e-05
aF3.050272308e-05
aF2.8410303670000001e-05
aF2.6442745239999999e-05
aF2.4578516090000001e-05
aF2.2830814829999999e-05
aF2.1212021679999999e-05
aF1.9729262120000002e-05
aF1.8355150490000001e-05
aF1.707123186e-05
aF1.586887141e-05
aF1.4741150529999999e-05
aF1.367326629e-05
aF1.2645957969999999e-05
aF1.167388391e-05
aF1.076947487e-05
aF9.9351035850000006e-06
aF9.1632588420000004e-06
aF8.4644462769999999e-06
aF7.7864473900000007e-06
aF7.1482572979999997e-06
aF6.5534528179999998e-06
aF6.0033291880000002e-06
aF5.4903643369999997e-06
aF5.0149060410000003e-06
aF4.5716493800000004e-06
aF4.1575219999999998e-06
aF3.772151014e-06
aF3.4157817139999999e-06
aF3.088627771e-06
aF2.8388318999999999e-06
aF2.609186725e-06
aF2.3948879920000002e-06
aF2.1952209119999998e-06
aF2.0105125330000001e-06
aF1.841362307e-06
aF1.68658738e-06
aF1.54482008e-06
aF1.413884306e-06
aF1.2918224450000001e-06
aF1.1800292550000001e-06
aF1.0777793400000001e-06
aF9.847739230999999e-07
asg40
(lp60
F0.49994238489999998
aF0.39890602949999998
aF0.1943604297
aF0.26040718800000001
aF0.26190375220000001
aF0.1993989478
aF0.24549360849999999
aF0.22139173130000001
aF0.1468121251
aF0.14108232409999999
aF0.122590545
aF0.097750335369999997
aF0.1103641489
aF0.10407560170000001
aF0.085949630959999995
aF0.079494330200000005
aF0.070444936890000004
aF0.063809284780000003
aF0.060268460420000003
aF0.055226499790000001
aF0.051944969389999998
aF0.048812823339999999
aF0.045013810639999999
aF0.042338174450000002
aF0.040489616729999997
aF0.038374701999999997
aF0.036304601069999998
aF0.034655121859999999
aF0.033054048849999997
aF0.031439545800000003
aF0.030216980899999999
aF0.029602770720000001
aF0.029015506310000001
aF0.02830645369
aF0.0271329007
aF0.025849460049999998
aF0.02485332166
aF0.024743076619999999
aF0.024658993279999999
aF0.024152711439999999
aF0.023366770280000001
aF0.02252446961
aF0.022412546639999999
aF0.022343063449999999
aF0.02190061317
aF0.02107413302
aF0.020415090649999999
aF0.01994247281
aF0.01943410923
aF0.01873501747
aF0.017975777030000001
aF0.017436298029999998
aF0.017029626480000001
aF0.01649591207
aF0.015938390010000001
aF0.015282273040000001
aF0.01507624783
aF0.015077891810000001
aF0.01459240406
aF0.01409007443
aF0.01367057358
aF0.01352271765
aF0.013498141199999999
aF0.013503794059999999
aF0.01328469377
aF0.01286228939
aF0.012388599050000001
aF0.011975011379999999
aF0.011578300200000001
aF0.01111374715
aF0.010680175110000001
aF0.0099932572769999995
aF0.0093472277820000008
aF0.0087557275329999996
aF0.0080791490440000006
aF0.0074847592860000003
aF0.0069028788589999999
aF0.0062126515990000002
aF0.0055329034800000003
aF0.005034246329
aF0.0044611770280000001
aF0.00395917579
aF0.0034639492759999998
aF0.0029916531810000001
aF0.002568056319
aF0.0022162181440000001
aF0.0019127148650000001
aF0.0016136284559999999
aF0.001357965219
aF0.0011689678169999999
aF0.0010393821870000001
aF0.00093891593589999999
aF0.00084774179830000005
aF0.00076615629049999997
aF0.00069564495210000001
aF0.00063781570919999996
aF0.00058769019639999997
aF0.00054475777200000005
aF0.0005032041848
aF0.0004609636684
aF0.0004250999842
aF0.00039083645450000001
aF0.00036154708360000001
aF0.00033104921159999998
aF0.00030272093819999998
aF0.0002744402923
aF0.00025062896700000001
aF0.000230536988
aF0.00021085742399999999
aF0.0001909245148
aF0.00017175706829999999
aF0.00015457096159999999
aF0.00014034528219999999
aF0.00012866925499999999
aF0.0001189629475
aF0.0001097845847
aF0.0001005003419
aF9.1693048059999995e-05
aF8.4335194820000001e-05
aF7.8192001200000006e-05
aF7.2948644950000002e-05
aF6.7356293779999998e-05
aF6.220588456e-05
aF5.7871574770000002e-05
aF5.4200700560000001e-05
aF5.0693072099999999e-05
aF4.714165652e-05
aF4.3595434209999999e-05
aF4.0188668239999999e-05
aF3.7014784329999997e-05
aF3.4082857289999999e-05
aF3.1268722320000002e-05
aF2.8546445000000001e-05
aF2.59854309e-05
aF2.373744137e-05
aF2.1543023860000002e-05
aF1.8889973799999999e-05
aF1.6675966170000002e-05
aF1.5155577810000001e-05
aF1.4069523859999999e-05
aF1.3048861430000001e-05
aF1.1942106429999999e-05
aF1.078917839e-05
aF9.6947197069999993e-06
aF8.920854141e-06
aF8.3107252879999993e-06
aF7.6816339420000008e-06
aF6.9274608059999997e-06
aF6.2177735939999997e-06
aF5.6062570889999997e-06
aF5.1055742189999996e-06
aF4.7133737589999998e-06
aF4.3724786719999998e-06
aF4.0352889019999999e-06
aF3.7076901910000002e-06
aF3.398520744e-06
aF3.3164920460000001e-06
aF3.246039057e-06
aF3.0720480599999998e-06
aF2.7994622210000001e-06
asg41
(lp61
F2
aF2
aF2
aF2
aF2
aF2
aF2
aF2
aF2
aF2
aF2
aF2
aF2
aF2
aF2
aF2
aF2
aF2
aF2
aF2
aF2
aF2
aF2
aF2
aF2
aF2
aF2
aF2
aF2
aF2
aF2
aF2
aF2
aF2
aF2
aF2
aF2
aF2
aF2
aF2
aF2
aF2
aF2
aF2
aF2
aF2
aF2
aF2
aF2
aF2
aF2
aF2
aF2
aF2
aF2
aF2
aF2
aF2
aF3
aF3
aF3
aF3
aF3
aF3
aF2
aF2
aF2
aF2
aF2
aF2
aF2
aF2
aF2
aF2
aF2
aF2
aF2
aF2
aF2
aF2
aF2
aF2
aF2
aF2
aF2
aF2
aF2
aF2
aF2
aF2
aF2
aF2
aF2
aF2
aF2
aF2
aF2
aF2
aF2
aF2
aF2
aF2
aF2
aF2
aF2
aF2
aF2
aF2
aF2
aF2
aF2
aF2
aF2
aF2
aF2
aF2
aF2
aF2
aF2
aF2
aF2
aF2
aF2
aF2
aF2
aF2
aF2
aF2
aF2
aF2
aF2
aF2
aF2
aF2
aF1
aF1
aF1
aF1
aF1
aF1
aF1
aF1
aF1
aF1
aF1
aF1
aF1
aF1
aF1
aF1
aF1
aF1
aF1
aF1
aF1
aF1
aF1
aF1
aF1
aF1
asg53
(lp62
F23
aF5
aF11
aF11
aF7
aF10
aF10
aF7
aF10
aF9
aF7
aF9
aF8
aF7
aF8
aF7
aF7
aF7
aF7
aF7
aF7
aF6
aF6
aF7
aF6
aF6
aF6
aF6
aF6
aF6
aF5
aF5
aF5
aF5
aF5
aF5
aF5
aF5
aF5
aF5
aF5
aF5
aF5
aF5
aF5
aF5
aF5
aF5
aF5
aF5
aF5
aF5
aF5
aF5
aF5
aF5
aF5
aF5
aF5
aF5
aF4
aF4
aF4
aF4
aF4
aF4
aF4
aF4
aF4
aF4
aF4
aF4
aF4
aF4
aF4
aF4
aF4
aF4
aF4
aF4
aF4
aF4
aF4
aF4
aF4
aF4
aF4
aF4
aF4
aF4
aF4
aF4
aF4
aF4
aF4
aF4
aF4
aF4
aF4
aF4
aF4
aF4
aF4
aF4
aF4
aF4
aF4
aF4
aF4
aF4
aF4
aF4
aF4
aF4
aF4
aF4
aF4
aF4
aF4
aF4
aF4
aF4
aF5
aF4
aF4
aF4
aF4
aF4
aF5
aF4
aF4
aF4
aF4
aF5
aF5
aF5
aF4
aF4
aF4
aF4
aF4
aF4
aF4
aF4
aF4
aF4
aF4
aF4
aF4
aF4
aF4
aF4
aF4
aF4
aF4
aF4
aF4
aF4
aF4
aF4
asS'k'
(lp63
F0.67716233849999996
aF0.66345844239999996
aF0.41356662100000002
aF0.1931602539
aF0.13378079200000001
aF0.14450497030000001
aF0.098247330729999999
aF0.072094749149999998
aF0.075420674830000006
aF0.054382999799999998
aF0.058078157050000002
aF0.052128846020000001
aF0.038383277610000002
aF0.035752738470000003
aF0.035851709670000002
aF0.034084871910000002
aF0.03429210714
aF0.031584551180000003
aF0.029496430109999999
aF0.03020626123
aF0.030504559019999999
aF0.030134555569999999
aF0.029513094680000001
aF0.028518242860000001
aF0.02836939963
aF0.028689260389999999
aF0.028997821010000001
aF0.029002370100000001
aF0.028893075229999999
aF0.029026378200000001
aF0.029431184910000002
aF0.02965745308
aF0.029662641579999999
aF0.02943110053
aF0.02907037732
aF0.028720143060000002
aF0.028286983290000001
aF0.0277999448
aF0.027323280969999999
aF0.026578353450000002
aF0.0253685123
aF0.024063088329999999
aF0.023086454789999999
aF0.021969288480000002
aF0.021046149520000001
aF0.02028640625
aF0.019462219539999999
aF0.018572657999999999
aF0.017678165940000001
aF0.01686729361
aF0.01629172873
aF0.015841217760000002
aF0.01541109352
aF0.01488232722
aF0.014263180360000001
aF0.01359475426
aF0.012872025
aF0.012107291480000001
aF0.01141889838
aF0.01074480215
aF0.010191199810000001
aF0.0097528104440000006
aF0.0094870220430000006
aF0.0092731574590000001
aF0.0091241463200000001
aF0.0090157976420000008
aF0.0089049272110000004
aF0.0087737363399999994
aF0.0086142051439999992
aF0.0083910699110000004
aF0.0080500446219999994
aF0.007702604232
aF0.0073321976509999999
aF0.0069329328349999999
aF0.0065246782030000004
aF0.0061099514130000003
aF0.0056943753970000004
aF0.0053245304999999998
aF0.0049591903759999998
aF0.0046061801370000004
aF0.0042663667529999998
aF0.0039540353400000002
aF0.0036621915030000001
aF0.0033926529060000002
aF0.0031452848819999999
aF0.0029135582729999999
aF0.0026946243100000001
aF0.0024869219530000001
aF0.002289739403
aF0.0021011779169999999
aF0.0019210936749999999
aF0.001749957952
aF0.001588738846
aF0.001437371098
aF0.001296683672
aF0.0011668898779999999
aF0.001048255627
aF0.00094023591519999997
aF0.00084250086220000002
aF0.0007541590315
aF0.00067458858620000005
aF0.00060366844169999995
aF0.00054074485760000003
aF0.000485334427
aF0.00043651332819999997
aF0.00039386070000000002
aF0.00035664238599999998
aF0.00032414461209999998
aF0.00029577414400000003
aF0.00027110554409999997
aF0.00024959176329999999
aF0.0002308548731
aF0.00021445954070000001
aF0.0002000096939
aF0.00018728758830000001
aF0.0001760347371
aF0.0001658847592
aF0.0001565543619
aF0.00014791369499999999
aF0.00013985432530000001
aF0.00013226353070000001
aF0.000125081028
aF0.00011827778810000001
aF0.0001117874069
aF0.00010558429570000001
aF9.965836414e-05
aF9.3961217970000004e-05
aF8.843756728e-05
aF8.3100977260000002e-05
aF7.7956121800000001e-05
aF7.3016171829999997e-05
aF6.8248010579999998e-05
aF6.3638240019999999e-05
aF5.917882355e-05
aF5.4766037589999998e-05
aF5.0599678769999999e-05
aF4.6613876459999997e-05
aF4.2823728439999997e-05
aF3.9247718000000003e-05
aF3.5883400009999999e-05
aF3.2723659530000002e-05
aF2.9758019750000001e-05
aF2.698568814e-05
aF2.440192012e-05
aF2.2008153600000002e-05
aF1.9811134720000001e-05
aF1.76577756e-05
aF1.5769228580000001e-05
aF1.410537771e-05
aF1.2625985609999999e-05
aF1.130373424e-05
aF1.012032789e-05
aF9.0596715909999998e-06
aF8.1069560530000002e-06
aF7.2529315220000003e-06
aF6.4874823949999999e-06
aF5.8032156780000001e-06
aF5.1917430960000003e-06
aF4.6463918359999997e-06
aF4.1602052520000004e-06
asg48
(lp64
F0.013034139009999999
aF0.01351421738
aF0.0078887494789999998
aF0.0018612050439999999
aF0.0061367512480000001
aF0.0061979568280000003
aF0.002214799102
aF0.0049511189190000002
aF0.0031203442899999999
aF0.0015013581629999999
aF0.0026586281509999999
aF0.0018308381420000001
aF0.001298512788
aF0.0017992617559999999
aF0.0012103340209999999
aF0.0008983933527
aF0.00107400203
aF0.0006882102925
aF0.00070429903430000004
aF0.00078954956009999998
aF0.00066094335119999995
aF0.00054591786660000002
aF0.00049291682680000003
aF0.00043436297159999999
aF0.0004491790995
aF0.00045917877219999999
aF0.00042205631230000001
aF0.00036644797130000001
aF0.00032526676020000001
aF0.00031054295910000002
aF0.00031658107930000002
aF0.00031985530610000002
aF0.0003008687383
aF0.00027353859209999998
aF0.0002490927203
aF0.0006134434049
aF0.0002435600275
aF0.00023798950270000001
aF0.00022001858129999999
aF0.00019999784090000001
aF0.00049422363539999999
aF0.0001923447351
aF0.00018922700929999999
aF0.00018039124779999999
aF0.00016770884459999999
aF0.00015747696109999999
aF0.00015148654390000001
aF0.00014708972129999999
aF0.00014004554519999999
aF0.00013055348579999999
aF0.00012127796990000001
aF0.00011387581730000001
aF0.00010795506180000001
aF0.0001026544387
aF0.00025918897050000001
aF9.6417980809999999e-05
aF9.0517285010000004e-05
aF0.0002209405586
aF0.0002152228006
aF0.00021410144680000001
aF0.000210111149
aF0.0002013586929
aF0.00019110085839999999
aF0.00018296342049999999
aF0.00017678494219999999
aF0.0001710052601
aF0.0001643599356
aF0.00015676702009999999
aF0.00014871056979999999
aF5.4421217749999997e-05
aF0.0001286515349
aF4.6441576629999999e-05
aF4.2160653069999998e-05
aF0.00010176497129999999
aF3.572957883e-05
aF3.178090749e-05
aF7.5333217130000007e-05
aF6.7986868499999995e-05
aF6.1325003329999999e-05
aF5.4159220909999997e-05
aF4.7467498859999999e-05
aF4.0950593449999997e-05
aF3.5282673660000002e-05
aF3.0726987690000002e-05
aF1.0235566120000001e-05
aF8.9382814380000003e-06
aF7.9012828960000007e-06
aF7.1176690949999999e-06
aF6.4664092990000004e-06
aF5.854695254e-06
aF5.2671002360000004e-06
aF4.726317478e-06
aF4.2519869869999996e-06
aF3.8510775920000003e-06
aF3.4917407979999999e-06
aF3.157013383e-06
aF2.8501211379999998e-06
aF2.5780075180000001e-06
aF2.3386694979999998e-06
aF2.1083304610000001e-06
aF5.0115965930000003e-06
aF1.756965861e-06
aF4.1424100480000004e-06
aF1.4577425899999999e-06
aF3.422324643e-06
aF1.2108802790000001e-06
aF1.0891880550000001e-06
aF9.8781388000000005e-07
aF9.0390856820000004e-07
aF8.3840855609999997e-07
aF7.8011444179999999e-07
aF7.2545031959999999e-07
aF6.6932588199999996e-07
aF6.1686441289999998e-07
aF5.7345328889999999e-07
aF5.3847697900000004e-07
aF5.0671049239999998e-07
aF4.7787517529999997e-07
aF4.4739226630000001e-07
aF4.182748283e-07
aF9.9750986810000006e-07
aF9.6559896449999991e-07
aF9.2483889080000003e-07
aF8.7032066780000002e-07
aF8.0466164150000003e-07
aF7.414853939e-07
aF6.9171407639999999e-07
aF6.4834217010000005e-07
aF6.0798944599999998e-07
aF5.6297509819999997e-07
aF5.1588614440000002e-07
aF4.7306135840000001e-07
aF4.3433045729999997e-07
aF4.0020976240000003e-07
aF3.6937727430000001e-07
aF9.6437566419999999e-07
aF9.6156815749999999e-07
aF9.4752473979999995e-07
aF9.0386544410000002e-07
aF8.3514775410000004e-07
aF7.616113555e-07
aF6.9781856069999999e-07
aF6.4798851209999999e-07
aF6.0761061299999997e-07
aF5.6800410140000004e-07
aF5.2750533190000003e-07
aF4.8748876879999997e-07
aF4.3626562969999999e-07
aF3.8912732420000001e-07
aF3.5428032220000001e-07
aF3.2937856279999999e-07
aF3.0868681980000001e-07
aF2.869025682e-07
aF2.6244767049999999e-07
aF2.3764322210000001e-07
aF2.1512886749999999e-07
aF1.934824677e-07
aF1.746751952e-07
aF1.589601849e-07
aF1.4537914929999999e-07
asg43
(lp65
F3
aF3
aF2
aF2
aF2
aF2
aF2
aF2
aF2
aF3
aF3
aF3
aF3
aF3
aF3
aF3
aF3
aF3
aF3
aF3
aF3
aF3
aF3
aF3
aF3
aF3
aF3
aF3
aF3
aF3
aF3
aF3
aF3
aF3
aF3
aF3
aF3
aF2
aF2
aF2
aF2
aF2
aF2
aF2
aF2
aF2
aF2
aF2
aF2
aF3
aF3
aF3
aF3
aF3
aF3
aF3
aF3
aF3
aF3
aF3
aF3
aF3
aF3
aF3
aF3
aF3
aF3
aF3
aF3
aF3
aF3
aF3
aF3
aF3
aF3
aF3
aF3
aF3
aF3
aF3
aF3
aF3
aF3
aF3
aF3
aF3
aF3
aF3
aF3
aF3
aF3
aF3
aF3
aF3
aF3
aF3
aF3
aF3
aF3
aF3
aF3
aF3
aF3
aF3
aF3
aF3
aF3
aF3
aF3
aF3
aF3
aF3
aF3
aF3
aF3
aF3
aF3
aF3
aF3
aF3
aF3
aF3
aF3
aF3
aF3
aF3
aF3
aF3
aF3
aF3
aF3
aF3
aF3
aF3
aF3
aF3
aF3
aF3
aF3
aF2
aF2
aF2
aF2
aF2
aF2
aF2
aF2
aF2
aF2
aF2
aF2
aF2
aF2
aF2
aF2
aF2
aF2
aF2
aF2
aF2
asg49
(lp66
F2
aF3
aF3
aF3
aF3
aF3
aF3
aF3
aF3
aF3
aF3
aF3
aF3
aF3
aF3
aF3
aF3
aF3
aF3
aF3
aF3
aF3
aF3
aF3
aF3
aF3
aF3
aF3
aF3
aF3
aF3
aF3
aF3
aF3
aF3
aF2
aF3
aF3
aF3
aF3
aF2
aF3
aF3
aF3
aF3
aF3
aF3
aF3
aF3
aF3
aF3
aF3
aF3
aF3
aF2
aF3
aF3
aF2
aF2
aF2
aF2
aF2
aF2
aF2
aF2
aF2
aF2
aF2
aF2
aF3
aF2
aF3
aF3
aF2
aF3
aF3
aF2
aF2
aF2
aF2
aF2
aF2
aF2
aF2
aF3
aF3
aF3
aF3
aF3
aF3
aF3
aF3
aF3
aF3
aF3
aF3
aF3
aF3
aF3
aF3
aF2
aF3
aF2
aF3
aF2
aF3
aF3
aF3
aF3
aF3
aF3
aF3
aF3
aF3
aF3
aF3
aF3
aF3
aF3
aF3
aF2
aF2
aF2
aF2
aF2
aF2
aF2
aF2
aF2
aF2
aF2
aF2
aF2
aF2
aF2
aF1
aF1
aF1
aF1
aF1
aF1
aF1
aF1
aF1
aF1
aF1
aF1
aF1
aF1
aF1
aF1
aF1
aF1
aF1
aF1
aF1
aF1
aF1
aF1
aF1
asg45
(lp67
F0.36818263959999997
aF0.063397338050000002
aF0.060374775669999999
aF0.31394000309999998
aF0.10359866049999999
aF0.11663751880000001
aF0.39173094920000001
aF0.1091547341
aF0.1349488834
aF0.36665465739999997
aF0.15249305630000001
aF0.2078090061
aF0.26921428689999999
aF0.16140067550000001
aF0.22597360059999999
aF0.31447769580000001
aF0.2098747466
aF0.2907466246
aF0.2371543119
aF0.1881888226
aF0.23456390120000001
aF0.25813391730000002
aF0.21417852009999999
aF0.25988782780000003
aF0.1983591861
aF0.1825244496
aF0.19643632429999999
aF0.21481882720000001
aF0.19568326089999999
aF0.16373412609999999
aF0.14619605299999999
aF0.13813982020000001
aF0.13568002239999999
aF0.13026185979999999
aF0.1202644598
aF0.1102563839
aF0.10505411520000001
aF0.1001417272
aF0.096360881620000005
aF0.093691603459999995
aF0.089180354540000006
aF0.087079337650000005
aF0.084708070129999993
aF0.081485929119999995
aF0.078823360329999995
aF0.077120863829999997
aF0.075167843839999998
aF0.072833862520000001
aF0.070258508560000002
aF0.067449801140000001
aF0.065573280629999994
aF0.064493995849999999
aF0.063489930390000004
aF0.062295854179999999
aF0.059938685960000002
aF0.058482928179999998
aF0.056882659289999998
aF0.053755178979999999
aF0.051547665350000001
aF0.049129408659999999
aF0.04707836126
aF0.045669580410000001
aF0.044453828729999999
aF0.042955295730000002
aF0.041042947769999998
aF0.038824965179999997
aF0.036634831180000001
aF0.034588126199999999
aF0.03265733312
aF0.031024300009999999
aF0.0286287855
aF0.026589372310000001
aF0.024522549380000001
aF0.022313356150000001
aF0.020476397819999999
aF0.018675715039999999
aF0.016661058659999999
aF0.014918967740000001
aF0.01331197907
aF0.0118355301
aF0.01055710002
aF0.0094432948759999996
aF0.0084290421619999997
aF0.0074597686660000002
aF0.00664141074
aF0.0058944873899999996
aF0.0052875672029999996
aF0.0047493689360000001
aF0.0042588631849999996
aF0.00384380686
aF0.0034816936320000002
aF0.00313363068
aF0.0028359765000000002
aF0.0025812597369999999
aF0.0023909809280000002
aF0.002226773553
aF0.0020591042449999999
aF0.0018875287469999999
aF0.0017343329099999999
aF0.0015939739740000001
aF0.0014476201059999999
aF0.001345061608
aF0.001229188001
aF0.0011438157500000001
aF0.0010408664179999999
aF0.00096265879780000002
aF0.00088211556549999996
aF0.00080767561100000005
aF0.00074157501229999995
aF0.00068034535679999998
aF0.00062503284889999997
aF0.00057514587140000001
aF0.00052866518740000003
aF0.00048633143930000003
aF0.00044669351559999999
aF0.00041178308040000001
aF0.00037999661849999998
aF0.00034916823640000001
aF0.00032058691539999998
aF0.00029472330620000002
aF0.00026935214189999999
aF0.00024774603560000002
aF0.0002275942339
aF0.00020900559600000001
aF0.0001924251019
aF0.0001765222007
aF0.00016192538969999999
aF0.00014826560179999999
aF0.00013570080410000001
aF0.00012435350329999999
aF0.0001146408029
aF0.0001053086914
aF9.6532061120000002e-05
aF8.8311433019999999e-05
aF8.0248940309999997e-05
aF7.2115524609999996e-05
aF6.5773182940000004e-05
aF5.9437327720000002e-05
aF5.4147170649999999e-05
aF4.9729745550000003e-05
aF4.5599846760000003e-05
aF4.1782779810000001e-05
aF3.805568447e-05
aF3.4608865149999998e-05
aF3.1527767330000001e-05
aF2.8684760590000001e-05
aF2.6379255370000001e-05
aF2.4287413419999999e-05
aF2.2153314010000002e-05
aF2.0115669530000001e-05
aF1.8202668449999999e-05
aF1.6507437260000001e-05
aF1.5119015409999999e-05
aF1.3900112960000001e-05
aF1.279282454e-05
aF1.1852806790000001e-05
aF1.0841928940000001e-05
aF9.8075935849999998e-06
aF8.8954782080000004e-06
aF8.1361533249999993e-06
asg46
(lp68
F0.0030783404330000002
aF0.00038156997019999999
aF0.00053394826969999998
aF0.0030225567889999999
aF0.00062549487539999998
aF0.001041539378
aF0.0036963010339999998
aF0.00089770749110000005
aF0.00086131953049999998
aF0.0033911127060000002
aF0.0013937838000000001
aF0.001475399931
aF0.0026102355309999999
aF0.001515125365
aF0.0016706765719999999
aF0.0029811161130000002
aF0.001860436431
aF0.0028817852690000002
aF0.0015825087359999999
aF0.0014277919039999999
aF0.001910409068
aF0.002068143901
aF0.001891923717
aF0.00152230778
aF0.001634549081
aF0.0014962536010000001
aF0.001392146947
aF0.0012110507769999999
aF0.001244281675
aF0.0009062686299
aF0.001319693829
aF0.0013428826969999999
aF0.0012014337380000001
aF0.001129202095
aF0.001091273009
aF0.00089052050289999997
aF0.00077363892390000001
aF0.00078184266520000005
aF0.00070544583109999998
aF0.00061723820969999997
aF0.00061872847259999996
aF0.0006197751612
aF0.00056710069840000001
aF0.00051476168620000001
aF0.00048554988980000001
aF0.00047324853329999998
aF0.0004682212499
aF0.0004387056962
aF0.00040915179789999999
aF0.00039878612909999999
aF0.00038063541319999998
aF0.00034799417709999999
aF0.00030933141779999998
aF0.00029688671720000002
aF0.00028389828749999997
aF0.00028090042140000002
aF0.00027592599900000002
aF0.00027133876890000002
aF0.00025251524569999998
aF0.00021955862280000001
aF0.00044791413740000001
aF0.00043280215960000003
aF0.00039616150139999999
aF0.00036161508239999999
aF0.00033389892969999999
aF0.00031425621759999998
aF0.0002896617459
aF0.00026605367640000001
aF0.00025728044349999999
aF0.00025172730520000002
aF0.00022641088619999999
aF0.00020028040290000001
aF0.00018004780300000001
aF0.0001666461349
aF0.0001577408304
aF0.00014221848299999999
aF0.0001205391859
aF0.0001096113541
aF9.8166749900000002e-05
aF8.6354637389999999e-05
aF7.87288659e-05
aF6.907424886e-05
aF5.8876260199999998e-05
aF5.1453154399999998e-05
aF4.5796632369999999e-05
aF4.2738489340000002e-05
aF3.9960704599999999e-05
aF3.7122589969999999e-05
aF3.3312263490000003e-05
aF3.1113038360000003e-05
aF2.896327748e-05
aF2.5997683819999999e-05
aF2.3167274629999999e-05
aF2.085120604e-05
aF1.9482918420000001e-05
aF1.8397484279999999e-05
aF1.7318187590000001e-05
aF1.5975366870000002e-05
aF1.4352295790000001e-05
aF1.304110903e-05
aF1.213952932e-05
aF1.135985362e-05
aF1.08761489e-05
aF9.9686105530000002e-06
aF9.1262135460000006e-06
aF8.4007390339999998e-06
aF7.7992214879999998e-06
aF7.3756920320000003e-06
aF6.7631966859999999e-06
aF6.1188287829999997e-06
aF5.5923891019999997e-06
aF5.2184809620000003e-06
aF4.9245188689999998e-06
aF4.6434427310000004e-06
aF4.2601643560000002e-06
aF3.7120480600000001e-06
aF3.3221584269999998e-06
aF3.1680198829999998e-06
aF3.0416304749999999e-06
aF2.84806968e-06
aF2.663778874e-06
aF2.4549916539999998e-06
aF1.054056661e-06
aF2.0704841539999998e-06
aF1.9027652800000001e-06
aF1.66647995e-06
aF1.456008399e-06
aF1.420454101e-06
aF6.4238719069999999e-07
aF1.241843576e-06
aF1.080084959e-06
aF9.5008801380000001e-07
aF9.3288961789999995e-07
aF4.378023337e-07
aF4.0618035779999999e-07
aF3.6510368540000001e-07
aF6.3384774289999997e-07
aF5.4351448409999996e-07
aF5.2553071460000004e-07
aF4.9478364369999996e-07
aF4.3061891539999999e-07
aF3.5601072920000001e-07
aF3.191728678e-07
aF3.0732172740000003e-07
aF2.931789761e-07
aF2.6043279179999998e-07
aF2.499784674e-07
aF2.2067084989999999e-07
aF1.6962010329999999e-07
aF1.7068110419999999e-07
aF1.718694062e-07
aF1.4388211159999999e-07
aF1.1350222e-07
aF9.9312159690000004e-08
aF9.0244201400000005e-08
aF8.8111308529999996e-08
aF8.3537770589999995e-08
aF7.0764930389999998e-08
aF6.5474834119999994e-08
aF6.2023441890000001e-08
asS'T'
(lp69
F1
aF0.2295536302
aF0.14454612880000001
aF0.092120891420000003
aF0.070442943820000006
aF0.06007486762
aF0.051248336720000003
aF0.046455319129999999
aF0.041495456540000003
aF0.037350596020000001
aF0.034060650310000003
aF0.031597986539999998
aF0.029282563649999999
aF0.027426767939999999
aF0.025395742589999999
aF0.023827287079999999
aF0.022228676360000001
aF0.02080188124
aF0.019790492640000001
aF0.018804163660000001
aF0.01779284712
aF0.01704599666
aF0.016435873560000001
aF0.015781157689999999
aF0.01520696704
aF0.01466669066
aF0.014140606930000001
aF0.013808352080000001
aF0.01322758169
aF0.012908159650000001
aF0.012422585119999999
aF0.01206988667
aF0.011678130700000001
aF0.011371289539999999
aF0.01103429704
aF0.01075367971
aF0.010430910559999999
aF0.010170314620000001
aF0.0098881185590000004
aF0.0096886571260000002
aF0.0095308483210000006
aF0.0093060152949999992
aF0.0091777572699999997
aF0.0089713487540000001
aF0.0088184965300000008
aF0.0086600428980000005
aF0.0085310175860000004
aF0.0083576135220000004
aF0.0082558694449999994
aF0.0081346287050000007
aF0.0080424944929999992
aF0.0079152931570000001
aF0.0077474664110000003
aF0.0076476429760000001
aF0.0075674644120000004
aF0.007424382478
aF0.0073385946440000004
aF0.0072289880320000003
aF0.0071263646880000003
aF0.0070169955369999999
aF0.0069258695390000003
aF0.0068530833879999996
aF0.0067877009840000002
aF0.0067151661480000001
aF0.006580110135
aF0.0065528294829999998
aF0.0064508334030000001
aF0.006453554391
aF0.0062888935870000001
aF0.0062729390330000002
aF0.0061542461539999998
aF0.0061354779990000002
aF0.0060630769300000003
aF0.005986071527
aF0.0059305319910000001
aF0.0059107269500000004
aF0.005804503293
aF0.0057616695189999997
aF0.0056735528140000003
aF0.0056627887459999998
aF0.0055852765659999996
aF0.0055459879360000002
aF0.0054718780380000002
aF0.0054798290549999996
aF0.0053771225880000001
aF0.0053399746790000003
aF0.0052772617880000004
aF0.0052531039109999997
aF0.0052160705020000003
aF0.0051619653130000002
aF0.0051185100119999997
aF0.0050744174909999997
aF0.0050472367150000003
aF0.0050140194279999998
aF0.004947246701
aF0.0049193233520000001
aF0.0048890162549999998
aF0.0048542242250000003
aF0.004789537436
aF0.0047673008259999997
aF0.0047050620529999997
aF0.0046710058859999997
aF0.0046388632850000002
aF0.0045792746640000003
aF0.0045315687520000002
aF0.0045016251419999999
aF0.004439587349
aF0.0044017380980000001
aF0.004343857122
aF0.0043044077420000002
aF0.0042389132720000002
aF0.0041879280119999996
aF0.0041347296040000004
aF0.004097139459
aF0.0040225030060000002
aF0.0039802487120000002
aF0.0039192230769999996
aF0.003867439284
aF0.0038006439950000002
aF0.0037339895190000002
aF0.0036789427730000001
aF0.0036213548399999999
aF0.0035586108419999999
aF0.0035060303610000001
aF0.0034334630039999999
aF0.0033662079550000001
aF0.0033082984890000001
aF0.0032563612969999998
aF0.0031928150460000001
aF0.0031371599199999998
aF0.0030623665040000001
aF0.0030085683000000002
aF0.0029417735920000002
aF0.0028822165649999999
aF0.0027939743480000002
aF0.0027265270879999999
aF0.0026503923839999999
aF0.0025801049670000002
aF0.0024978373979999999
aF0.0024295977609999999
aF0.0023550677439999998
aF0.0022782883670000001
aF0.0021974745350000001
aF0.0021305952720000001
aF0.002057260753
aF0.001988992268
aF0.0019114742110000001
aF0.0018405803
aF0.001765398507
aF0.001688090849
aF0.001615501245
aF0.00153609502
aF0.001460397056
aF0.001386778493
aF0.00131439931
aF0.001238219488
aF0.001172066438
aF0.0010993008200000001
aF0.001028322238
aF0.0009610016032
asg47
(lp70
F2
aF2
aF2
aF2
aF2
aF2
aF2
aF2
aF2
aF2
aF2
aF2
aF2
aF2
aF2
aF2
aF2
aF2
aF2
aF2
aF2
aF2
aF2
aF2
aF2
aF2
aF2
aF2
aF2
aF2
aF2
aF2
aF2
aF2
aF2
aF2
aF2
aF2
aF2
aF2
aF2
aF2
aF2
aF2
aF2
aF2
aF2
aF2
aF2
aF2
aF2
aF2
aF2
aF2
aF2
aF2
aF2
aF2
aF2
aF2
aF2
aF2
aF2
aF2
aF2
aF2
aF2
aF2
aF2
aF2
aF2
aF2
aF2
aF2
aF2
aF2
aF2
aF2
aF2
aF2
aF2
aF2
aF2
aF2
aF2
aF2
aF2
aF2
aF2
aF2
aF2
aF2
aF2
aF2
aF2
aF2
aF2
aF2
aF2
aF2
aF2
aF2
aF2
aF2
aF2
aF2
aF2
aF2
aF2
aF2
aF2
aF2
aF2
aF2
aF2
aF2
aF2
aF2
aF2
aF2
aF2
aF2
aF2
aF2
aF2
aF2
aF2
aF2
aF2
aF2
aF2
aF2
aF2
aF2
aF2
aF2
aF2
aF2
aF2
aF2
aF2
aF2
aF2
aF2
aF2
aF2
aF2
aF2
aF2
aF2
aF2
aF2
aF2
aF2
aF2
aF2
aF2
aF2
aF2
aF2
asg42
(lp71
F0.01403799184
aF0.012459711680000001
aF0.0073166921399999999
aF0.0044247655529999997
aF0.0033472655629999998
aF0.002673922979
aF0.0022309828930000002
aF0.0020640600470000002
aF0.001541307055
aF0.0014194355620000001
aF0.0014039124049999999
aF0.001083990427
aF0.00092090859830000005
aF0.00084600655269999997
aF0.00072718746999999998
aF0.00073453715989999998
aF0.00070933523459999997
aF0.00061880926419999999
aF0.00057378024899999995
aF0.00052678113300000005
aF0.00048173935030000002
aF0.00045794074239999998
aF0.00042970240349999997
aF0.00038893593939999998
aF0.00035278456340000002
aF0.00032517854250000002
aF0.00031276378700000003
aF0.00030178333090000002
aF0.00028855760300000003
aF0.000277787756
aF0.00026967977090000002
aF0.0002605029884
aF0.00025423643850000001
aF0.00024769781069999998
aF0.00023866838960000001
aF0.0002281068227
aF0.0002197305319
aF0.00021144964649999999
aF0.0002033940989
aF0.00019509037910000001
aF0.0001869523676
aF0.0001820026616
aF0.0001787642966
aF0.00017594305499999999
aF0.00017321452369999999
aF0.000172167653
aF0.0001702605357
aF0.00016828014269999999
aF0.00016555971569999999
aF0.0001624564609
aF0.00015931950989999999
aF0.00015563312390000001
aF0.0001507195143
aF0.00014510019299999999
aF0.00013913915160000001
aF0.00013448500610000001
aF0.00013060726020000001
aF0.0001257507045
aF4.3855505349999998e-05
aF4.1830290889999999e-05
aF4.0174881270000001e-05
aF3.8876014350000001e-05
aF3.81622347e-05
aF3.7098882199999999e-05
aF9.9763937369999993e-05
aF9.7164231880000004e-05
aF9.3742369650000006e-05
aF8.9279062349999997e-05
aF8.4112385689999995e-05
aF7.874242898e-05
aF7.2167680809999998e-05
aF6.6324346070000006e-05
aF6.0719570880000003e-05
aF5.5363520479999999e-05
aF5.0581213289999997e-05
aF4.6156150810000003e-05
aF4.1953776200000002e-05
aF3.8345037309999999e-05
aF3.4697696199999997e-05
aF3.1230172970000001e-05
aF2.8070736299999999e-05
aF2.5296203060000001e-05
aF2.2855212140000001e-05
aF2.0787903650000002e-05
aF1.9032154800000001e-05
aF1.7503328979999999e-05
aF1.614583961e-05
aF1.483444302e-05
aF1.359006906e-05
aF1.241724916e-05
aF1.1304654710000001e-05
aF1.026281698e-05
aF9.2927344909999998e-06
aF8.3930408039999993e-06
aF7.5703271419999997e-06
aF6.8235589469999996e-06
aF6.1476674330000004e-06
aF5.5302282389999996e-06
aF4.9704001350000001e-06
aF4.4618077090000001e-06
aF4.0000510219999996e-06
aF3.599844321e-06
aF3.240369565e-06
aF2.9291703019999999e-06
aF2.6473510049999999e-06
aF2.403104004e-06
aF2.1852283799999999e-06
aF1.9958720749999998e-06
aF1.8283680770000001e-06
aF1.680844603e-06
aF1.5515141e-06
aF1.438690508e-06
aF1.341578137e-06
aF1.2553474290000001e-06
aF1.1776682669999999e-06
aF1.105968626e-06
aF1.038966564e-06
aF9.763481407000001e-07
aF9.1682978369999998e-07
aF8.609924012e-07
aF8.0787635230000002e-07
aF7.5782026520000004e-07
aF7.1011534710000004e-07
aF6.649922373e-07
aF6.2180627039999998e-07
aF5.8124972609999997e-07
aF5.4330785569999995e-07
aF5.0798913759999995e-07
aF4.7462099979999998e-07
aF4.4304198710000001e-07
aF4.1275411340000001e-07
aF3.835535516e-07
aF3.5560125710000001e-07
aF3.288812404e-07
aF9.3841501190000005e-07
aF8.9946533229999996e-07
aF8.7269376229999996e-07
aF8.4011787910000004e-07
aF8.0180269560000005e-07
aF7.5939976599999998e-07
aF7.1461873499999999e-07
aF6.6881004289999999e-07
aF6.2287493859999995e-07
aF5.777232559e-07
aF5.337893793e-07
aF4.9138202269999996e-07
aF4.3888255520000002e-07
aF3.9477558459999998e-07
aF3.562982346e-07
aF3.2242973360000002e-07
aF2.9259220500000001e-07
aF2.6603807059999998e-07
aF2.4215792690000002e-07
aF2.2058953349999999e-07
aF2.011561895e-07
aF1.836813423e-07
aF1.6781674149999999e-07
aF1.5354309290000001e-07
aF1.406797443e-07
aF1.2904789769999999e-07
asg52
(lp72
F0.0089647115650000001
aF0.018528469190000001
aF0.01142621905
aF0.0014649476010000001
aF0.0082456906270000005
aF0.0084053391590000002
aF0.0017975951
aF0.0054882943310000003
aF0.0036227946489999999
aF0.0025016271260000001
aF0.0029147328640000002
aF0.0020148191659999999
aF0.001140095229
aF0.001792280708
aF0.0010800070980000001
aF0.0018411450689999999
aF0.0010275092959999999
aF0.00072462369419999998
aF0.001533483422
aF0.00069112923759999997
aF0.0005366797481
aF0.00051241636359999996
aF0.00050119460540000004
aF0.0010453695009999999
aF0.00043413993189999998
aF0.00044117184679999999
aF0.00040368642279999998
aF0.00090882876689999997
aF0.00087373743570000003
aF0.0009194490487
aF0.00038379385670000001
aF0.00092549512449999996
aF0.0008644864808
aF0.00081960674419999998
aF0.00082284239019999998
aF0.00084516814080000001
aF0.0008405020158
aF0.00080195341330000002
aF0.00075261139409999996
aF0.00071901258029999999
aF0.00070646887330000005
aF0.0006942316437
aF0.00067321335449999997
aF0.00064747915449999999
aF0.00062191286030000004
aF0.0002337071951
aF0.00022036290469999999
aF0.00020947728430000001
aF0.0001996294319
aF0.000190436472
aF0.00018083543880000001
aF0.0001707983984
aF0.0001617365171
aF0.0001541879281
aF0.0001477465192
aF0.00014092630129999999
aF0.0001339324255
aF0.00033857236540000001
aF0.00012378486949999999
aF0.00031197032470000002
aF0.00030283608340000003
aF0.00029429671559999998
aF0.0001111717002
aF0.00010745701879999999
aF0.0001046532119
aF0.0001024512585
aF0.00010047692010000001
aF9.7804599569999999e-05
aF9.3903417249999998e-05
aF8.8775306079999999e-05
aF0.00021883193770000001
aF0.00020813278230000001
aF0.0001957069711
aF0.0001816916463
aF0.0001665233073
aF0.0001519286626
aF0.00013852013919999999
aF4.7966445739999999e-05
aF4.331650256e-05
aF3.9493768209999997e-05
aF3.6341322869999999e-05
aF3.3658755769999997e-05
aF3.1212910550000002e-05
aF2.8960255000000001e-05
aF2.681908157e-05
aF2.479472715e-05
aF2.2883009430000002e-05
aF2.1083125809999999e-05
aF1.9384083480000002e-05
aF1.7771159539999999e-05
aF1.6246846719999998e-05
aF1.4813085979999999e-05
aF1.3472168840000001e-05
aF1.222678136e-05
aF1.1076235809999999e-05
aF1.0015487549999999e-05
aF9.0380080520000005e-06
aF8.1443153459999997e-06
aF7.3386467679999997e-06
aF6.6199456809999999e-06
aF5.9795114320000001e-06
aF5.4048089649999997e-06
aF4.8949997949999999e-06
aF4.4396423650000001e-06
aF4.0405216430000004e-06
aF3.6892098460000001e-06
aF3.3831518210000001e-06
aF3.1087782589999998e-06
aF2.8576330119999999e-06
aF2.6292028239999998e-06
aF2.4233995300000002e-06
aF2.2387477189999998e-06
aF2.0729829500000001e-06
aF1.9225311259999998e-06
aF1.7840582550000001e-06
aF1.655035331e-06
aF1.5337286549999999e-06
aF1.419858839e-06
aF1.3147471950000001e-06
aF1.218651033e-06
aF1.130189591e-06
aF1.04698379e-06
aF9.697462509000001e-07
aF8.9832340589999996e-07
aF8.3343529389999998e-07
aF7.7371662170000004e-07
aF7.1845505069999997e-07
aF6.6691885749999998e-07
aF6.1846884319999998e-07
aF5.7244715510000005e-07
aF5.2834337069999997e-07
aF4.8693484440000001e-07
aF4.4852638509999999e-07
aF4.1320400560000001e-07
aF9.7833307259999994e-07
aF9.1616173560000004e-07
aF8.5055565630000004e-07
aF7.8588023019999997e-07
aF7.2346438670000001e-07
aF6.6405231840000004e-07
aF6.0831353640000002e-07
aF5.5594257609999998e-07
aF5.0691511200000005e-07
aF4.608582873e-07
aF4.1735927680000001e-07
aF3.7704553180000001e-07
aF9.5020530169999998e-07
aF8.9154463239999995e-07
aF8.2984568909999998e-07
aF7.6878495079999995e-07
aF7.1013890439999995e-07
aF6.5473287450000004e-07
aF6.0294415489999999e-07
aF5.5451247169999996e-07
aF5.0961083499999998e-07
aF4.6763642679999999e-07
aF4.2830722410000001e-07
aF3.919913609e-07
aF3.5858232090000001e-07
aF3.2803409020000001e-07
asg50
(lp73
F0.31905343279999998
aF0.2058916127
aF0.10784097600000001
aF0.062604749370000004
aF0.045881773649999999
aF0.03506314982
aF0.02822160466
aF0.025285903410000001
aF0.018269628230000001
aF0.016848760559999999
aF0.016394895159999999
aF0.01280815238
aF0.0111077508
aF0.0099758045520000008
aF0.0080400444670000008
aF0.0078980981089999992
aF0.0073819536600000001
aF0.0064029629960000002
aF0.0059056309149999996
aF0.0053818127420000002
aF0.0049271619799999998
aF0.0047558431139999996
aF0.0044859636080000001
aF0.0041950789869999996
aF0.0039465407239999998
aF0.0036982416600000001
aF0.0035422735970000001
aF0.003404099722
aF0.0032412241970000001
aF0.0031088278860000001
aF0.0030062547679999998
aF0.0028781574859999999
aF0.0027744099749999998
aF0.0026751454539999998
aF0.0025680701860000001
aF0.0024683953469999999
aF0.0023973332959999999
aF0.0023322688249999999
aF0.002259989426
aF0.0021815445190000002
aF0.002109193021
aF0.0020529350569999999
aF0.0020022347549999999
aF0.0019481199320000001
aF0.0018899370700000001
aF0.0018487520700000001
aF0.001806337399
aF0.001759364119
aF0.0017084834110000001
aF0.001659798414
aF0.00161746571
aF0.001576282489
aF0.001534870113
aF0.001488842007
aF0.001431308928
aF0.0013811627249999999
aF0.001333034947
aF0.0012733891189999999
aF0.001231561143
aF0.001157223968
aF0.0011039764730000001
aF0.0010638342959999999
aF0.001042451386
aF0.001021679476
aF0.00099967238050000006
aF0.00099145944819999999
aF0.00096891528940000005
aF0.00093419500810000002
aF0.00089012705509999997
aF0.00084099821100000005
aF0.00077919836130000005
aF0.00071995713490000004
aF0.00066184842420000003
aF0.00060661563040000002
aF0.00055648787110000001
aF0.0005097637477
aF0.00046554581980000001
aF0.0004270065676
aF0.00038927731429999997
aF0.00035347166289999998
aF0.00031938776980000003
aF0.00028843043749999999
aF0.00026071887680000002
aF0.0002363745814
aF0.00021543624300000001
aF0.00019740013629999999
aF0.0001812508224
aF0.00016626689889999999
aF0.0001522576506
aF0.00013912052969999999
aF0.00012675728329999999
aF0.0001152551898
aF0.0001046078897
aF9.479120934e-05
aF8.5721461630000002e-05
aF7.7318835429999994e-05
aF6.9677013979999996e-05
aF6.2726201250000004e-05
aF5.6355205099999997e-05
aF5.0558012269999998e-05
aF4.5327552520000003e-05
aF4.0691094039999997e-05
aF3.6549632899999998e-05
aF3.2889020869999999e-05
aF2.9650532960000001e-05
aF2.6824036360000002e-05
aF2.435266338e-05
aF2.2192400760000001e-05
aF2.030273057e-05
aF1.8649711270000001e-05
aF1.7189833399999999e-05
aF1.5905442069999999e-05
aF1.4770544680000001e-05
aF1.377731582e-05
aF1.289358375e-05
aF1.208619379e-05
aF1.1341926999999999e-05
aF1.065654113e-05
aF1.002618276e-05
aF9.4393145379999996e-06
aF8.883915314e-06
aF8.3568661669999993e-06
aF7.8514678060000004e-06
aF7.367333754e-06
aF6.9037900039999996e-06
aF6.4645351950000004e-06
aF6.0522566200000002e-06
aF5.667488928e-06
aF5.3055662570000004e-06
aF4.9598688800000003e-06
aF4.6262540409999997e-06
aF4.3042217890000004e-06
aF3.9928237089999996e-06
aF3.6935627590000002e-06
aF3.3718821819999998e-06
aF3.287459988e-06
aF3.1531480890000002e-06
aF2.9971732969999999e-06
aF2.8300218190000001e-06
aF2.6563436290000001e-06
aF2.4808732400000002e-06
aF2.306674348e-06
aF2.1361802109999999e-06
aF1.9716188480000001e-06
aF1.813528632e-06
aF1.6626764619999999e-06
aF1.484467684e-06
aF1.3314320099999999e-06
aF1.198223963e-06
aF1.0815545100000001e-06
aF9.7861933179999993e-07
aF8.8692558539999997e-07
aF8.0487021399999996e-07
aF7.3097125690000003e-07
aF6.64353519e-07
aF6.0437144140000002e-07
aF5.5003318600000003e-07
aF5.0088583179999996e-07
aF4.5662474050000001e-07
aF4.1672076609999998e-07
asg44
(lp74
F0.051305321289999997
aF0.0090871443059999998
aF0.0074513302170000004
aF0.0059510599849999998
aF0.0049579951369999996
aF0.0044407589830000004
aF0.0044077250720000001
aF0.0042747165950000002
aF0.0040271927360000003
aF0.0014815418130000001
aF0.0014029003360000001
aF0.0012818847409999999
aF0.001230875107
aF0.0011894114750000001
aF0.0011485614999999999
aF0.0010810222509999999
aF0.0010421870870000001
aF0.00096345972199999999
aF0.00089830958330000001
aF0.00083966827079999995
aF0.00077142314230000005
aF0.00072383549110000001
aF0.00069457638640000002
aF0.00066794675519999997
aF0.00066124402630000001
aF0.00062085070210000004
aF0.00058508352749999997
aF0.00056762075600000003
aF0.00052784652349999997
aF0.00049897016179999999
aF0.0004839124329
aF0.00046023716880000002
aF0.00043958788200000002
aF0.00043291284829999999
aF0.00040355914670000002
aF0.0003928370481
aF0.00037314954709999999
aF0.001013573344
aF0.00096640054280000001
aF0.00093621143910000001
aF0.00089955553060000004
aF0.00091618427119999997
aF0.00089614961449999999
aF0.00089444768590000003
aF0.00085831951499999997
aF0.00085886620389999998
aF0.00082930776879999995
aF0.00083189328960000001
aF0.00081093803260000004
aF0.00030050440139999998
aF0.0003090835073
aF0.00032127153269999998
aF0.00032390321060000001
aF0.00033371611309999997
aF0.00033974221739999999
aF0.00034199913590000002
aF0.00034920230710000001
aF0.00035390730690000003
aF0.00036105068320000001
aF0.00036169124090000001
aF0.0003662474028
aF0.00037043858609999997
aF0.00037556701880000001
aF0.00037626077470000001
aF0.00037548951200000002
aF0.0003786731409
aF0.00037736961599999999
aF0.00038326174769999998
aF0.0003817001559
aF0.0003831629556
aF0.00038433888470000002
aF0.00038467510630000001
aF0.00038341995479999999
aF0.0003823239547
aF0.00038339159759999999
aF0.00038441714839999999
aF0.00038131007439999999
aF0.00037928828360000002
aF0.0003756760917
aF0.00037755298819999999
aF0.00037231067960000002
aF0.00036955984310000001
aF0.00036393245560000003
aF0.00036421877149999998
aF0.000355426771
aF0.00035153700660000003
aF0.00034629912730000002
aF0.00034407239890000001
aF0.00033916824499999999
aF0.00033479051450000002
aF0.00033268524780000002
aF0.00032948802149999998
aF0.00032794928430000001
aF0.00032632711199999999
aF0.00032250972490000001
aF0.00032196094890000001
aF0.0003198842302
aF0.0003191476659
aF0.00031466725950000002
aF0.00031363778040000001
aF0.00030908079879999998
aF0.00030737442470000001
aF0.00030301425309999999
aF0.0002972601985
aF0.00029306991640000001
aF0.00028816931479999999
aF0.00028325079259999998
aF0.0002796806693
aF0.00027205114069999998
aF0.00026843736999999999
aF0.00026098757259999998
aF0.00025549869880000001
aF0.00024946930480000001
aF0.0002449163337
aF0.0002366592238
aF0.00023082852589999999
aF0.0002240251402
aF0.00021867889880000001
aF0.00021086542510000001
aF0.00020507490490000001
aF0.0001989189496
aF0.00019330131280000001
aF0.00018776569239999999
aF0.00018205542870000001
aF0.0001761875914
aF0.00017085182450000001
aF0.00016503858740000001
aF0.00016046751659999999
aF0.00015492934429999999
aF0.00015023261939999999
aF0.00014474951729999999
aF0.00014062732750000001
aF0.000134886224
aF0.00013066800109999999
aF0.00012541275039999999
aF0.0001205743049
aF0.0001155867929
aF0.0001114987556
aF0.0001061344218
aF0.00024215196440000001
aF0.00023381165569999999
aF0.00022538396489999999
aF0.0002165872059
aF0.00021057463990000001
aF0.0002006750731
aF0.0001930274487
aF0.0001840105587
aF0.0001768232479
aF0.0001672628092
aF0.00015804582149999999
aF0.0001496616177
aF0.00014092995390000001
aF0.000131756166
aF0.00012428929050000001
aF0.0001150075086
aF0.00010699114659999999
aF9.9389860950000006e-05
aF9.2557074710000002e-05
aF8.426814191e-05
aF7.814710982e-05
asg51
(lp75
F0.037887637969999999
aF0.040030127759999999
aF0.024344732680000002
aF0.01165708285
aF0.0065785196499999997
aF0.0069129080270000001
aF0.0065117196260000001
aF0.0050165855109999997
aF0.0046354867590000003
aF0.003747198477
aF0.0032807446819999998
aF0.003016174303
aF0.0026814552839999999
aF0.002551701633
aF0.0026670949500000002
aF0.0027212433900000001
aF0.0026717606050000002
aF0.0025515468189999998
aF0.0025203375119999998
aF0.0025855010409999999
aF0.0026211240210000002
aF0.002568921349
aF0.0024748270080000002
aF0.0023659793690000001
aF0.002286712707
aF0.0022427310419999998
aF0.002214197388
aF0.00216884869
aF0.0021129118649999999
aF0.0020669722450000001
aF0.0020357777479999999
aF0.0020050336810000001
aF0.0019705523749999998
aF0.0019298371899999999
aF0.0018810056450000001
aF0.001828747133
aF0.001777914446
aF0.0017295410980000001
aF0.0016830432360000001
aF0.0016391119470000001
aF0.001606760714
aF0.0015891643169999999
aF0.001583352256
aF0.001580833007
aF0.0015748530119999999
aF0.001567858465
aF0.001549365176
aF0.001519729329
aF0.0014826406419999999
aF0.0014364924919999999
aF0.0013768381939999999
aF0.001308480503
aF0.001232667703
aF0.001151697254
aF0.0010701228839999999
aF0.00099711776469999999
aF0.00093114805519999998
aF0.00087309969089999998
aF0.00082051827949999997
aF0.0007709257703
aF0.00072888117899999995
aF0.00069435268320000001
aF0.00067078624460000002
aF0.00065345036840000004
aF0.00064424618529999996
aF0.00063861060669999998
aF0.00063273251590000002
aF0.00062413416769999998
aF0.00061239514980000005
aF0.00059667735780000002
aF0.00057225035420000001
aF0.00054642769330000003
aF0.00051837179489999999
aF0.00048909944249999997
aF0.0004591332397
aF0.00042866155930000003
aF0.00039828700519999998
aF0.00037020942929999999
aF0.0003428446899
aF0.00031646325299999997
aF0.00029152908159999998
aF0.00026911497329999999
aF0.00024857196930000002
aF0.0002299937583
aF0.00021293284300000001
aF0.0001967894609
aF0.00018215765709999999
aF0.00016809853260000001
aF0.00015463400860000001
aF0.00014211079689999999
aF0.00013021881790000001
aF0.0001189865587
aF0.0001084217141
aF9.8458401049999998e-05
aF8.9193585049999994e-05
aF8.0590563799999999e-05
aF7.2747071369999998e-05
aF6.5609648699999995e-05
aF5.9103601940000001e-05
aF5.3236158599999998e-05
aF4.7958836580000001e-05
aF4.32545825e-05
aF3.9066956449999999e-05
aF3.5368435700000002e-05
aF3.209110573e-05
aF2.920313447e-05
aF2.6651183289999998e-05
aF2.4407706520000001e-05
aF2.242796347e-05
aF2.067494987e-05
aF1.9131908509999999e-05
aF1.77604394e-05
aF1.6544425959999999e-05
aF1.5463823260000001e-05
aF1.450436959e-05
aF1.365169587e-05
aF1.28965377e-05
aF1.221660159e-05
aF1.1595791090000001e-05
aF1.1020961429999999e-05
aF1.04741392e-05
aF9.9571354399999997e-06
aF9.4606892279999994e-06
aF8.9852472220000004e-06
aF8.5315406929999997e-06
aF8.0925037409999999e-06
aF7.6683219749999997e-06
aF7.2534302370000002e-06
aF6.847055703e-06
aF6.4470807310000002e-06
aF6.0541002080000001e-06
aF5.6702741610000003e-06
aF5.2970374929999998e-06
aF4.9349971210000002e-06
aF4.5817551379999996e-06
aF4.2444116290000001e-06
aF3.9179489370000002e-06
aF3.6045771029999998e-06
aF3.3062703169999998e-06
aF3.023687897e-06
aF2.7577549959999999e-06
aF2.50828973e-06
aF2.2752724800000002e-06
aF2.0582233869999999e-06
aF1.8579001169999999e-06
aF1.6735714e-06
aF1.5026906899999999e-06
aF1.348898709e-06
aF1.2108576930000001e-06
aF1.086567013e-06
aF9.7468520230000008e-07
aF8.7399534569999996e-07
aF7.8385162329999999e-07
aF7.0324643010000004e-07
aF6.3053162869999999e-07
aF5.6522266380000001e-07
aF5.0649373399999997e-07
aF4.5376517669999998e-07
aF4.0630899689999998e-07
aF3.635919123e-07
assg12
(lp76
sg14
(lp77
F2
aF3
aF4
aF5
aF6
aF7
aF8
aF9
aF10
aF11
aF12
aF13
aF14
aF15
aF16
aF17
aF18
aF19
aF20
aF21
aF22
aF23
aF24
aF25
aF26
aF27
aF28
aF29
aF30
aF31
aF32
aF33
aF34
aF35
aF36
aF37
aF38
aF39
aF40
aF41
aF42
aF43
aF44
aF45
aF46
aF47
aF48
aF49
aF50
aF51
aF52
aF53
aF54
aF55
aF56
aF57
aF58
aF59
aF60
aF61
aF62
aF63
aF64
aF65
aF66
aF67
aF68
aF69
aF70
aF71
aF72
aF73
aF74
aF75
aF76
aF77
aF78
aF79
aF80
aF81
aF82
aF83
aF84
aF85
aF86
aF87
aF88
aF89
aF90
aF91
aF92
aF93
aF94
aF95
aF96
aF97
aF98
aF99
aF100
aF101
aF102
aF103
aF104
aF105
aF106
aF107
aF108
aF109
aF110
aF111
aF112
aF113
aF114
aF115
aF116
aF117
aF118
aF119
aF120
aF121
aF122
aF123
aF124
aF125
aF126
aF127
aF128
aF129
aF130
aF131
aF132
aF133
aF134
aF135
aF136
aF137
aF138
aF139
aF140
aF141
aF142
aF143
aF144
aF145
aF146
aF147
aF148
aF149
aF150
aF151
aF152
aF153
aF154
aF155
aF156
aF157
aF158
aF159
aF160
aF161
assS'5'
(dp78
g3
I5
sg4
(dp79
sg8
(dp80
sg12
(lp81
sg14
(lp82
ssS'4'
(dp83
g3
I4
sg4
(dp84
S'cpu'
p85
I01
sS'clock'
p86
I01
ssg8
(dp87
g85
(lp88
F0.22000000000000003
aF0.17000000000000004
aF0.18999999999999995
aF0.17999999999999994
aF0.18000000000000016
aF0.17999999999999994
aF0.19999999999999996
aF0.16999999999999993
aF0.19000000000000017
aF0.17999999999999972
aF0.18000000000000016
aF0.18000000000000016
aF0.17999999999999972
aF0.18000000000000016
aF0.18000000000000016
aF0.16999999999999993
aF0.17999999999999972
aF0.17000000000000037
aF0.17999999999999972
aF0.16999999999999993
aF0.1800000000000006
aF0.16999999999999993
aF0.17999999999999972
aF0.16999999999999993
aF0.16999999999999993
aF0.17999999999999972
aF0.16999999999999993
aF0.17000000000000082
aF0.17999999999999972
aF0.16999999999999993
aF0.16999999999999993
aF0.16999999999999993
aF0.16999999999999993
aF0.16999999999999993
aF0.16999999999999993
aF0.16999999999999993
aF0.17000000000000082
aF0.17999999999999972
aF0.16999999999999993
aF0.16999999999999993
aF0.16999999999999993
aF0.16999999999999993
aF0.16999999999999993
aF0.16999999999999993
aF0.16999999999999993
aF0.16999999999999993
aF0.16000000000000014
aF0.16999999999999993
aF0.16999999999999993
aF0.16999999999999993
aF0.16999999999999993
aF0.16999999999999993
aF0.16999999999999993
aF0.16999999999999993
aF0.21000000000000085
aF0.16999999999999993
aF0.16000000000000014
aF0.16999999999999993
aF0.16999999999999993
aF0.16999999999999993
aF0.16999999999999993
aF0.16000000000000014
aF0.16999999999999993
aF0.16999999999999993
aF0.16000000000000014
aF0.16000000000000014
aF0.16999999999999993
aF0.16000000000000014
aF0.16000000000000014
aF0.16999999999999993
aF0.16999999999999993
aF0.16000000000000014
aF0.16999999999999993
aF0.16999999999999993
aF0.16000000000000014
aF0.16999999999999993
aF0.16999999999999993
aF0.16000000000000014
aF0.16999999999999993
aF0.16999999999999993
aF0.16000000000000014
aF0.16999999999999993
aF0.16999999999999993
aF0.16000000000000014
aF0.16999999999999993
aF0.16999999999999993
aF0.16000000000000014
aF0.16999999999999993
aF0.16000000000000014
aF0.17999999999999972
aF0.26999999999999957
aF0.19000000000000128
aF0.16000000000000014
aF0.16999999999999815
aF0.16000000000000014
aF0.17000000000000171
aF0.16999999999999815
aF0.17000000000000171
aF0.30000000000000071
aF0.16999999999999815
aF0.17000000000000171
aF0.16000000000000014
aF0.17999999999999972
aF0.16999999999999815
aF0.16000000000000014
aF0.17000000000000171
aF0.16999999999999815
aF0.17000000000000171
aF0.16999999999999815
aF0.17999999999999972
aF0.17000000000000171
aF0.16000000000000014
aF0.16999999999999815
aF0.16000000000000014
aF0.17999999999999972
aF0.17999999999999972
aF0.17999999999999972
aF0.17000000000000171
aF0.17999999999999972
aF0.17000000000000171
aF0.17999999999999972
aF0.16999999999999815
aF0.17999999999999972
aF0.17000000000000171
aF0.17999999999999972
aF0.17999999999999972
aF0.16999999999999815
aF0.18000000000000327
aF0.16999999999999815
aF0.17999999999999972
aF0.17999999999999972
aF0.17000000000000171
aF0.17999999999999972
aF0.16999999999999815
aF0.17999999999999972
aF0.17000000000000171
aF0.17999999999999972
aF0.17000000000000171
aF0.17999999999999972
aF0.16999999999999815
aF0.17999999999999972
aF0.17000000000000171
aF0.16999999999999815
aF0.17000000000000171
aF0.16999999999999815
aF0.19000000000000128
aF0.16999999999999815
aF0.17000000000000171
aF0.16999999999999815
aF0.18000000000000327
aF0.16999999999999815
aF0.17000000000000171
aF0.16999999999999815
aF0.17000000000000171
aF0.17999999999999972
aF0.16999999999999815
aF0.17000000000000171
aF0.16999999999999815
aF0.17000000000000171
aF0.17999999999999972
asg86
(lp89
F0
aF0
aF0
aF1
aF0
aF0
aF0
aF0
aF1
aF0
aF0
aF0
aF0
aF0
aF1
aF0
aF0
aF0
aF0
aF1
aF0
aF0
aF0
aF0
aF0
aF1
aF0
aF0
aF0
aF0
aF1
aF0
aF0
aF0
aF0
aF0
aF1
aF0
aF0
aF0
aF0
aF0
aF1
aF0
aF0
aF0
aF0
aF1
aF0
aF0
aF0
aF0
aF0
aF1
aF0
aF0
aF0
aF0
aF1
aF0
aF0
aF0
aF0
aF0
aF1
aF0
aF0
aF0
aF0
aF1
aF0
aF0
aF0
aF0
aF0
aF1
aF0
aF0
aF0
aF0
aF0
aF1
aF0
aF0
aF0
aF0
aF0
aF1
aF0
aF0
aF0
aF1
aF0
aF0
aF0
aF0
aF1
aF0
aF0
aF0
aF1
aF0
aF0
aF0
aF0
aF0
aF1
aF0
aF0
aF0
aF0
aF1
aF0
aF0
aF0
aF0
aF0
aF1
aF0
aF0
aF0
aF0
aF1
aF0
aF0
aF0
aF0
aF0
aF1
aF0
aF0
aF0
aF0
aF1
aF0
aF0
aF0
aF0
aF1
aF0
aF0
aF0
aF0
aF0
aF1
aF0
aF0
aF0
aF0
aF0
aF1
aF0
aF0
aF0
aF0
aF1
aF0
aF0
aF0
aF0
assg12
(lp90
sg14
(lp91
F2
aF3
aF4
aF5
aF6
aF7
aF8
aF9
aF10
aF11
aF12
aF13
aF14
aF15
aF16
aF17
aF18
aF19
aF20
aF21
aF22
aF23
aF24
aF25
aF26
aF27
aF28
aF29
aF30
aF31
aF32
aF33
aF34
aF35
aF36
aF37
aF38
aF39
aF40
aF41
aF42
aF43
aF44
aF45
aF46
aF47
aF48
aF49
aF50
aF51
aF52
aF53
aF54
aF55
aF56
aF57
aF58
aF59
aF60
aF61
aF62
aF63
aF64
aF65
aF66
aF67
aF68
aF69
aF70
aF71
aF72
aF73
aF74
aF75
aF76
aF77
aF78
aF79
aF80
aF81
aF82
aF83
aF84
aF85
aF86
aF87
aF88
aF89
aF90
aF91
aF92
aF93
aF94
aF95
aF96
aF97
aF98
aF99
aF100
aF101
aF102
aF103
aF104
aF105
aF106
aF107
aF108
aF109
aF110
aF111
aF112
aF113
aF114
aF115
aF116
aF117
aF118
aF119
aF120
aF121
aF122
aF123
aF124
aF125
aF126
aF127
aF128
aF129
aF130
aF131
aF132
aF133
aF134
aF135
aF136
aF137
aF138
aF139
aF140
aF141
aF142
aF143
aF144
aF145
aF146
aF147
aF148
aF149
aF150
aF151
aF152
aF153
aF154
aF155
aF156
aF157
aF158
aF159
aF160
aF161
assS'7'
(dp92
g3
I7
sg4
(dp93
sg8
(dp94
sg12
(lp95
sg14
(lp96
ssS'6'
(dp97
g3
I6
sg4
(dp98
sg8
(dp99
sg12
(lp100
sg14
(lp101
ss.(dp102
S'1'
(dp103
g3
I1
sS'data'
p104
I2
sS'spec'
p105
(dp106
S'logscale'
p107
I01
sS'name'
p108
S'Custom01_linear'
p109
sS'with'
p110
S'lines'
p111
sS'expr'
p112
S''
sS'forbidden'
p113
(lp114
S'final'
p115
aS'iterations'
p116
asS'enabled'
p117
I01
sS'theTitle'
p118
S'Residuals'
p119
sS'titles'
p120
(lp121
sS'alternateAxis'
p122
(lp123
sS'raisit'
p124
I00
sS'persist'
p125
I00
sS'xlabel'
p126
S'Time [s]'
p127
sS'type'
p128
S'regular'
p129
sS'accumulation'
p130
S'first'
p131
ssS'id'
p132
S'linear'
p133
ssS'3'
(dp134
g3
I3
sg104
I6
sg105
(dp135
g107
I00
sg108
S'Custom03_bounding'
p136
sS'with'
p137
g111
sg112
S''
sg113
(lp138
sg117
I01
sg118
S'Bounded variables'
p139
sg120
(lp140
sg122
g123
sg124
I00
sg125
I00
sg126
g127
sg128
g129
sg130
g131
ssg132
S'bounding'
p141
ssS'2'
(dp142
g3
I2
sg104
I1
sg105
(dp143
g107
I00
sg108
S'Custom02_continuity'
p144
sS'with'
p145
g111
sg112
S''
sg113
g138
sg117
I01
sg118
S'Continuity'
p146
sg120
(lp147
sg122
(lp148
g7
asg124
I00
sg125
I00
sg126
g127
sg128
g129
sg130
g131
ssg132
S'continuity'
p149
ss.